(dp1
S'version'
p2
(lp3
((S'CHasTraits'
S'traits.ctraits'
tI-1
tp4
a((S'HasTraits'
p5
S'traits.has_traits'
p6
tI-1
tp7
a((S'HasStrictTraits'
p8
g6
tI-1
tp9
a((S'Engine'
p10
S'mayavi.core.engine'
p11
tI0
tp12
a((S'EnvisageEngine'
p13
S'mayavi.plugins.envisage_engine'
p14
tI0
tp15
asS'class_name'
p16
g13
sS'initargs'
p17
(dp18
S'data'
p19
(tsS'type'
p20
S'tuple'
p21
sS'id'
p22
I1
ssg20
S'instance'
p23
sg22
I0
sS'module'
p24
g14
sg19
(dp25
g19
(dp26
S'name'
p27
S'Mayavi Envisage Engine'
p28
sS'_current_scene_'
p29
(dp30
g2
(lp31
((S'HandleWeakRef'
p32
S'traits.trait_handlers'
p33
tI-1
tp34
asg16
g32
sg17
(dp35
g19
Nsg20
S'reference'
p36
sg22
I1
ssg20
g23
sg22
I404
sg24
g33
sg19
(dp37
g19
(dp38
S'object'
p39
(dp40
g19
Nsg20
g36
sg22
I0
ssg27
S'_current_scene'
p41
sS'value'
p42
(dp43
g19
Nsg20
g36
sg22
I133
sssg20
S'dict'
p44
sg22
I405
sssS'_current_object_'
p45
(dp46
g2
(lp47
((g32
g33
tI-1
tp48
asg16
g32
sg17
(dp49
g19
Nsg20
g36
sg22
I1
ssg20
g23
sg22
I3
sg24
g33
sg19
(dp50
g19
(dp51
g39
(dp52
g19
Nsg20
g36
sg22
I0
ssg27
S'_current_object'
p53
sg42
Nssg20
g44
sg22
I4
sssS'scenes'
p54
(dp55
g19
(lp56
(dp57
g2
(lp58
((S'CHasTraits'
S'traits.ctraits'
tI-1
tp59
a((g5
g6
tI-1
tp60
a((S'HasPrivateTraits'
p61
g6
tI-1
tp62
a((S'TreeNodeObject'
p63
S'traitsui.tree_node'
p64
tI-1
tp65
a((S'Base'
p66
S'mayavi.core.base'
p67
tI0
tp68
a((S'Scene'
p69
S'mayavi.core.scene'
p70
tI0
tp71
asg16
g69
sg17
(dp72
g19
Nsg20
g36
sg22
I1
ssg20
g23
sg22
I6
sg24
g70
sg19
(dp73
g19
(dp74
g27
VMayavi Scene 1
p75
sS'scene'
p76
(dp77
g2
(lp78
((S'CHasTraits'
S'traits.ctraits'
tI-1
tp79
a((g5
g6
tI-1
tp80
a((S'MWidget'
p81
S'pyface.i_widget'
p82
tI-1
tp83
a((S'Widget'
p84
S'pyface.ui.wx.widget'
p85
tI-1
tp86
a((g61
g6
tI-1
tp87
a((S'TVTKScene'
p88
S'tvtk.pyface.tvtk_scene'
p89
tI0
tp90
a((g69
S'tvtk.pyface.ui.wx.scene'
p91
tI0
tp92
a((S'DecoratedScene'
p93
S'tvtk.pyface.ui.wx.decorated_scene'
p94
tI0
tp95
asg16
g93
sg17
(dp96
g19
Nsg20
g36
sg22
I1
ssg20
g23
sg22
I8
sg24
g94
sg19
(dp97
g19
(dp98
S'picker'
p99
(dp100
g2
(lp101
((S'CHasTraits'
S'traits.ctraits'
tI-1
tp102
a((g5
g6
tI-1
tp103
a((S'Picker'
p104
S'tvtk.pyface.picker'
p105
tI0
tp106
asg16
g104
sg17
(dp107
g19
Nsg20
g36
sg22
I1
ssg20
g23
sg22
I10
sg24
g105
sg19
(dp108
g19
(dp109
S'p_mapper'
p110
(dp111
g2
(lp112
((S'CHasTraits'
S'traits.ctraits'
tI-1
tp113
a((g5
g6
tI-1
tp114
a((g8
g6
tI-1
tp115
a((S'TVTKBase'
p116
S'tvtk.tvtk_base'
p117
tI-1
tp118
a((S'ObjectBase'
p119
S'tvtk.tvtk_classes.object_base'
p120
tI-1
tp121
a((S'Object'
p122
S'tvtk.tvtk_classes.object'
p123
tI-1
tp124
a((S'Algorithm'
p125
S'tvtk.tvtk_classes.algorithm'
p126
tI-1
tp127
a((S'AbstractMapper'
p128
S'tvtk.tvtk_classes.abstract_mapper'
p129
tI-1
tp130
a((S'AbstractMapper3D'
p131
S'tvtk.tvtk_classes.abstract_mapper3d'
p132
tI-1
tp133
a((S'Mapper'
p134
S'tvtk.tvtk_classes.mapper'
p135
tI-1
tp136
a((S'PolyDataMapper'
p137
S'tvtk.tvtk_classes.poly_data_mapper'
p138
tI-1
tp139
asg16
g137
sg17
(dp140
g19
(NI0
tp141
sg20
g21
sg22
I13
ssg20
g23
sg22
I12
sg24
g138
sg19
(dp142
g19
(dp143
S'immediate_mode_rendering'
p144
I0
sS'immediate_mode_rendering_'
p145
I0
sS'scalar_mode'
p146
S'default'
p147
sS'static'
p148
I0
sS'static_'
p149
I0
sS'resolve_coincident_topology_z_shift'
p150
F0.01
sS'ghost_level'
p151
I0
sS'color_mode'
p152
g147
sS'interpolate_scalars_before_mapping'
p153
I0
sS'resolve_coincident_topology_'
p154
I0
sS'use_lookup_table_scalar_range'
p155
I0
sS'abort_execute'
p156
I0
sS'release_data_flag'
p157
I0
sS'progress'
p158
F0
sS'scalar_range'
p159
(dp160
g19
S'H4sIAGg7El0C/2tgSs4rzS2o1EvOL0rVyy3NKclMLCpKrOSKL0pNzs8rLikqTS7hKmSEqOLKS4HI\nFjJ5M7SGMia1BxUya3gzejO1QhWklFQWpHIVsoQypVl4M3gzAhWwangzhzLa+Pn5ef0HAjDhzVCS\n1BkqwIACPtiXJOkBAIHIRA6RAAAA\n'
p161
sg20
S'numeric'
p162
sg22
I15
ssS'progress_text'
p163
NsS'use_lookup_table_scalar_range_'
p164
I0
sS'debug'
p165
I0
sS'force_compile_only'
p166
I0
sS'global_immediate_mode_rendering_'
p167
I0
sS'scalar_visibility'
p168
I1
sS'field_data_tuple_id'
p169
L-1L
sS'global_warning_display_'
p170
I0
sS'abort_execute_'
p171
I0
sS'scalar_visibility_'
p172
I1
sS'debug_'
p173
I0
sS'number_of_pieces'
p174
I1
sS'interpolate_scalars_before_mapping_'
p175
I0
sS'render_time'
p176
F0
sS'number_of_sub_pieces'
p177
I1
sS'scalar_material_mode'
p178
g147
sS'release_data_flag_'
p179
I0
sS'piece'
p180
I0
sS'global_immediate_mode_rendering'
p181
I0
sS'resolve_coincident_topology'
p182
S'off'
p183
sS'resolve_coincident_topology_polygon_offset_faces'
p184
I1
ssg20
g44
sg22
I14
sssS'worldpicker'
p185
(dp186
g2
(lp187
((S'CHasTraits'
S'traits.ctraits'
tI-1
tp188
a((g5
g6
tI-1
tp189
a((g8
g6
tI-1
tp190
a((g116
g117
tI-1
tp191
a((g119
g120
tI-1
tp192
a((g122
g123
tI-1
tp193
a((S'AbstractPicker'
p194
S'tvtk.tvtk_classes.abstract_picker'
p195
tI-1
tp196
a((S'WorldPointPicker'
p197
S'tvtk.tvtk_classes.world_point_picker'
p198
tI-1
tp199
asg16
g197
sg17
(dp200
g19
Nsg20
g36
sg22
I13
ssg20
g23
sg22
I16
sg24
g198
sg19
(dp201
g19
(dp202
g165
I0
sg170
I0
sS'pick_from_list_'
p203
I0
sg173
I0
sS'pick_from_list'
p204
I0
ssg20
g44
sg22
I17
sssS'probe_data'
p205
(dp206
g2
(lp207
((S'CHasTraits'
S'traits.ctraits'
tI-1
tp208
a((g5
g6
tI-1
tp209
a((g8
g6
tI-1
tp210
a((g116
g117
tI-1
tp211
a((g119
g120
tI-1
tp212
a((g122
g123
tI-1
tp213
a((S'DataObject'
p214
S'tvtk.tvtk_classes.data_object'
p215
tI-1
tp216
a((S'DataSet'
p217
S'tvtk.tvtk_classes.data_set'
p218
tI-1
tp219
a((S'PointSet'
p220
S'tvtk.tvtk_classes.point_set'
p221
tI-1
tp222
a((S'PolyData'
p223
S'tvtk.tvtk_classes.poly_data'
p224
tI-1
tp225
asg16
g223
sg17
(dp226
g19
Nsg20
g36
sg22
I13
ssg20
g23
sg22
I18
sg24
g224
sg19
(dp227
g19
(dp228
g165
I0
sg170
I0
sS'global_release_data_flag_'
p229
I0
sg173
I0
sS'global_release_data_flag'
p230
I0
ssg20
g44
sg22
I19
sssS'cellpicker'
p231
(dp232
g2
(lp233
((S'CHasTraits'
S'traits.ctraits'
tI-1
tp234
a((g5
g6
tI-1
tp235
a((g8
g6
tI-1
tp236
a((g116
g117
tI-1
tp237
a((g119
g120
tI-1
tp238
a((g122
g123
tI-1
tp239
a((g194
g195
tI-1
tp240
a((S'AbstractPropPicker'
p241
S'tvtk.tvtk_classes.abstract_prop_picker'
p242
tI-1
tp243
a((g104
S'tvtk.tvtk_classes.picker'
p244
tI-1
tp245
a((S'CellPicker'
p246
S'tvtk.tvtk_classes.cell_picker'
p247
tI-1
tp248
asg16
g246
sg17
(dp249
g19
Nsg20
g36
sg22
I13
ssg20
g23
sg22
I20
sg24
g247
sg19
(dp250
g19
(dp251
S'pick_texture_data_'
p252
I0
sS'use_volume_gradient_opacity'
p253
I0
sS'pick_texture_data'
p254
I0
sg173
I0
sg204
I0
sg170
I0
sg203
I0
sS'pick_clipping_planes_'
p255
I0
sS'use_volume_gradient_opacity_'
p256
I0
sS'volume_opacity_isovalue'
p257
F0.050000000000000003
sg165
I0
sS'tolerance'
p258
F0.025000000000000001
sS'pick_clipping_planes'
p259
I0
ssg20
g44
sg22
I21
sssS'p_actor'
p260
(dp261
g2
(lp262
((S'CHasTraits'
S'traits.ctraits'
tI-1
tp263
a((g5
g6
tI-1
tp264
a((g8
g6
tI-1
tp265
a((g116
g117
tI-1
tp266
a((g119
g120
tI-1
tp267
a((g122
g123
tI-1
tp268
a((S'Prop'
p269
S'tvtk.tvtk_classes.prop'
p270
tI-1
tp271
a((S'Prop3D'
p272
S'tvtk.tvtk_classes.prop3d'
p273
tI-1
tp274
a((S'Actor'
p275
S'tvtk.tvtk_classes.actor'
p276
tI-1
tp277
asg16
g275
sg17
(dp278
g19
Nsg20
g36
sg22
I13
ssg20
g23
sg22
I22
sg24
g276
sg19
(dp279
g19
(dp280
S'origin'
p281
(dp282
g19
S'H4sIAGg7El0C/2tgSs4rzS2o1EvOL0rVyy3NKclMLCpKrOSKL0pNzs8rLikqTS7hKmSEqOLKS4HI\nFjJ5M7SGMia1BxUya3gzejO3QhWklFQWpHIVsoQypVl4M3gzAhWwangzhzLa+Pn5ef0HAjDhzVCS\n1BkqwYADlCTpAQD67GqfmQAAAA==\n'
p283
sg20
g162
sg22
I24
ssS'scale'
p284
(dp285
g19
S'H4sIAGg7El0C/2tgSs4rzS2o1EvOL0rVyy3NKclMLCpKrOSKL0pNzs8rLikqTS7hKmSEqOLKS4HI\nFjJ5M7SGMia1BxUya3gzejO3QhWklFQWpHIVsoQypVl4M3gzAhWwangzhzLa+Pn5ef0HAjDhzVCS\n1BkqwQAGH+zR6ZIkPQDfyO6fmQAAAA==\n'
p286
sg20
g162
sg22
I26
ssS'orientation'
p287
(dp288
g19
S'H4sIAGg7El0C/2tgSs4rzS2o1EvOL0rVyy3NKclMLCpKrOSKL0pNzs8rLikqTS7hKmSEqOLKS4HI\nFjJ5M7SGMia1BxUya3gzejO3QhWklFQWpHIVsoQypVl4M3gzAhWwangzhzLa+Pn5ef0HAjDhzVCS\n1BkqwYAKGmCMkiQ9ABqDrf+ZAAAA\n'
p289
sg20
g162
sg22
I25
ssS'estimated_render_time'
p290
F0
sg170
I0
sg165
I0
sS'dragable'
p291
I1
sS'visibility'
p292
I0
sS'pickable_'
p293
I0
sS'dragable_'
p294
I1
sS'use_bounds_'
p295
I1
sg173
I0
sS'visibility_'
p296
I0
sS'position'
p297
(dp298
g19
S'H4sIAGg7El0C/2tgSs4rzS2o1EvOL0rVyy3NKclMLCpKrOSKL0pNzs8rLikqTS7hKmSEqOLKS4HI\nFjJ5M7SGMia1BxUya3gzejO3QhWklFQWpHIVsoQypVl4M3gzAhWwangzhzLa+Pn5ef0HAjDhzVCS\n1BkqwYADlCTpAQD67GqfmQAAAA==\n'
p299
sg20
g162
sg22
I27
ssS'pickable'
p300
I0
sS'render_time_multiplier'
p301
F1
sS'use_bounds'
p302
I01
ssg20
g44
sg22
I23
sssS'p_source'
p303
(dp304
g2
(lp305
((S'CHasTraits'
S'traits.ctraits'
tI-1
tp306
a((g5
g6
tI-1
tp307
a((g8
g6
tI-1
tp308
a((g116
g117
tI-1
tp309
a((g119
g120
tI-1
tp310
a((g122
g123
tI-1
tp311
a((g125
g126
tI-1
tp312
a((S'PolyDataAlgorithm'
p313
S'tvtk.tvtk_classes.poly_data_algorithm'
p314
tI-1
tp315
a((S'Axes'
p316
S'tvtk.tvtk_classes.axes'
p317
tI-1
tp318
asg16
g316
sg17
(dp319
g19
Nsg20
g36
sg22
I13
ssg20
g23
sg22
I28
sg24
g317
sg19
(dp320
g19
(dp321
g281
(dp322
g19
S'H4sIAGg7El0C/2tgSs4rzS2o1EvOL0rVyy3NKclMLCpKrOSKL0pNzs8rLikqTS7hKmSEqOLKS4HI\nFjJ5M7SGMia1BxUya3gzejO3QhWklFQWpHIVsoQypVl4M3gzAhWwangzhzLa+Pn5ef0HAjDhzVCS\n1BkqwYADlCTpAQD67GqfmQAAAA==\n'
p323
sg20
g162
sg22
I30
ssS'scale_factor'
p324
F1
sS'compute_normals_'
p325
I1
sg171
I0
sg163
NsS'compute_normals'
p326
I1
sg165
I0
sS'symmetric'
p327
I1
sg170
I0
sg156
I0
sg173
I0
sg157
I0
sg179
I0
sg158
F0
sS'symmetric_'
p328
I1
ssg20
g44
sg22
I29
sssg258
F0.025000000000000001
sS'pointpicker'
p329
(dp330
g2
(lp331
((S'CHasTraits'
S'traits.ctraits'
tI-1
tp332
a((g5
g6
tI-1
tp333
a((g8
g6
tI-1
tp334
a((g116
g117
tI-1
tp335
a((g119
g120
tI-1
tp336
a((g122
g123
tI-1
tp337
a((g194
g195
tI-1
tp338
a((g241
g242
tI-1
tp339
a((g104
g244
tI-1
tp340
a((S'PointPicker'
p341
S'tvtk.tvtk_classes.point_picker'
p342
tI-1
tp343
asg16
g341
sg17
(dp344
g19
Nsg20
g36
sg22
I13
ssg20
g23
sg22
I31
sg24
g342
sg19
(dp345
g19
(dp346
S'use_cells'
p347
I0
sg173
I0
sg204
I0
sg170
I0
sg203
I0
sS'use_cells_'
p348
I0
sg165
I0
sg258
F0.025000000000000001
ssg20
g44
sg22
I32
ssssg20
g44
sg22
I11
sssS'anti_aliasing_frames'
p349
I8
sS'marker'
p350
(dp351
g2
(lp352
((S'CHasTraits'
S'traits.ctraits'
tI-1
tp353
a((g5
g6
tI-1
tp354
a((g8
g6
tI-1
tp355
a((g116
g117
tI-1
tp356
a((g119
g120
tI-1
tp357
a((g122
g123
tI-1
tp358
a((S'InteractorObserver'
p359
S'tvtk.tvtk_classes.interactor_observer'
p360
tI-1
tp361
a((S'OrientationMarkerWidget'
p362
S'tvtk.tvtk_classes.orientation_marker_widget'
p363
tI-1
tp364
asg16
g362
sg17
(dp365
g19
Nsg20
g36
sg22
I13
ssg20
g23
sg22
I33
sg24
g363
sg19
(dp366
g19
(dp367
S'key_press_activation_value'
p368
S'i'
sg258
I7
sS'enabled'
p369
I0
sg173
I0
sS'interactive_'
p370
I1
sS'priority'
p371
F0.55000001192092896
sg170
I0
sS'key_press_activation_'
p372
I0
sS'picking_managed'
p373
I01
sS'enabled_'
p374
I0
sg165
I0
sS'key_press_activation'
p375
I0
sS'picking_managed_'
p376
I1
sS'interactive'
p377
I1
ssg20
g44
sg22
I34
sssS'jpeg_progressive'
p378
I01
sS'axes'
p379
(dp380
g2
(lp381
((S'CHasTraits'
S'traits.ctraits'
tI-1
tp382
a((g5
g6
tI-1
tp383
a((g8
g6
tI-1
tp384
a((g116
g117
tI-1
tp385
a((g119
g120
tI-1
tp386
a((g122
g123
tI-1
tp387
a((g269
g270
tI-1
tp388
a((g272
g273
tI-1
tp389
a((S'AxesActor'
p390
S'tvtk.tvtk_classes.axes_actor'
p391
tI-1
tp392
asg16
g390
sg17
(dp393
g19
Nsg20
g36
sg22
I13
ssg20
g23
sg22
I35
sg24
g391
sg19
(dp394
g19
(dp395
g281
(dp396
g19
S'H4sIAGg7El0C/2tgSs4rzS2o1EvOL0rVyy3NKclMLCpKrOSKL0pNzs8rLikqTS7hKmSEqOLKS4HI\nFjJ5M7SGMia1BxUya3gzejO3QhWklFQWpHIVsoQypVl4M3gzAhWwangzhzLa+Pn5ef0HAjDhzVCS\n1BkqwYADlCTpAQD67GqfmQAAAA==\n'
p397
sg20
g162
sg22
I37
ssg287
(dp398
g19
S'H4sIAGg7El0C/2tgSs4rzS2o1EvOL0rVyy3NKclMLCpKrOSKL0pNzs8rLikqTS7hKmSEqOLKS4HI\nFjJ5M7SGMia1BxUya3gzejO3QhWklFQWpHIVsoQypVl4M3gzAhWwangzhzLa+Pn5ef0HAjDhzVCS\n1BkqwYAKGmCMkiQ9ABqDrf+ZAAAA\n'
p399
sg20
g162
sg22
I38
ssS'normalized_tip_length'
p400
(dp401
g19
S'H4sIAGg7El0C/2tgSs4rzS2o1EvOL0rVyy3NKclMLCpKrOSKL0pNzs8rLikqTS7hKmSEqOLKS4HI\nFjJ5M7SGMia1BxUya3gzejO3QhWklFQWpHIVsoQypVl4M3gzAhWwangzhzLa+Pn5ef0HAjDhzVCS\n1BkqMWsmCNy0R6dLkvQABNrUG5kAAAA=\n'
p402
sg20
g162
sg22
I39
ssg291
I1
sg293
I1
sg295
I1
sS'sphere_resolution'
p403
I16
sg296
I1
sg173
I0
sg284
(dp404
g19
S'H4sIAGg7El0C/2tgSs4rzS2o1EvOL0rVyy3NKclMLCpKrOSKL0pNzs8rLikqTS7hKmSEqOLKS4HI\nFjJ5M7SGMia1BxUya3gzejO3QhWklFQWpHIVsoQypVl4M3gzAhWwangzhzLa+Pn5ef0HAjDhzVCS\n1BkqwQAGH+zR6ZIkPQDfyO6fmQAAAA==\n'
p405
sg20
g162
sg22
I40
ssS'cylinder_radius'
p406
F0.050000000000000003
sS'cone_resolution'
p407
I16
sS'cylinder_resolution'
p408
I16
sS'axis_labels'
p409
I1
sS'total_length'
p410
(dp411
g19
S'H4sIAGg7El0C/2tgSs4rzS2o1EvOL0rVyy3NKclMLCpKrOSKL0pNzs8rLikqTS7hKmSEqOLKS4HI\nFjJ5M7SGMia1BxUya3gzejO3QhWklFQWpHIVsoQypVl4M3gzAhWwangzhzLa+Pn5ef0HAjDhzVCS\n1BkqwQAGH+zR6ZIkPQDfyO6fmQAAAA==\n'
p412
sg20
g162
sg22
I41
ssg300
I1
sS'tip_type'
p413
S'cone'
p414
sS'x_axis_label_text'
p415
S'X'
sS'cone_radius'
p416
F0.40000000000000002
sS'z_axis_label_text'
p417
S'Z'
sg292
I1
sg294
I1
sg170
I0
sg301
F1
sS'axis_labels_'
p418
I1
sg302
I01
sS'y_axis_label_text'
p419
S'Y'
sS'shaft_type_'
p420
I0
sg290
F0
sS'sphere_radius'
p421
F0.5
sS'normalized_shaft_length'
p422
(dp423
g19
S'H4sIAGg7El0C/2tgSs4rzS2o1EvOL0rVyy3NKclMLCpKrOSKL0pNzs8rLikqTS7hKmSEqOLKS4HI\nFjJ5M7SGMia1BxUya3gzejO3QhWklFQWpHIVsoQypVl4M3gzAhWwangzhzLa+Pn5ef0HAjDhzVCS\n1BkqYQwGj+3R6ZIkPQB1t6TsmQAAAA==\n'
p424
sg20
g162
sg22
I42
ssS'shaft_type'
p425
S'cylinder'
p426
sS'normalized_label_position'
p427
(dp428
g19
S'H4sIAGg7El0C/2tgSs4rzS2o1EvOL0rVyy3NKclMLCpKrOSKL0pNzs8rLikqTS7hKmSEqOLKS4HI\nFjJ5M7SGMia1BxUya3gzejO3QhWklFQWpHIVsoQypVl4M3gzAhWwangzhzLa+Pn5ef0HAjDhzVCS\n1BkqwQAGH+zR6ZIkPQDfyO6fmQAAAA==\n'
p429
sg20
g162
sg22
I43
ssg165
I0
sg297
(dp430
g19
S'H4sIAGg7El0C/2tgSs4rzS2o1EvOL0rVyy3NKclMLCpKrOSKL0pNzs8rLikqTS7hKmSEqOLKS4HI\nFjJ5M7SGMia1BxUya3gzejO3QhWklFQWpHIVsoQypVl4M3gzAhWwangzhzLa+Pn5ef0HAjDhzVCS\n1BkqwYADlCTpAQD67GqfmQAAAA==\n'
p431
sg20
g162
sg22
I44
sssg20
g44
sg22
I36
sssS'magnification'
p432
I1
sS'camera'
p433
(dp434
g2
(lp435
((S'CHasTraits'
S'traits.ctraits'
tI-1
tp436
a((g5
g6
tI-1
tp437
a((g8
g6
tI-1
tp438
a((g116
g117
tI-1
tp439
a((g119
g120
tI-1
tp440
a((g122
g123
tI-1
tp441
a((S'Camera'
p442
S'tvtk.tvtk_classes.camera'
p443
tI-1
tp444
a((S'OpenGLCamera'
p445
S'tvtk.tvtk_classes.open_gl_camera'
p446
tI-1
tp447
asg16
g445
sg17
(dp448
g19
Nsg20
g36
sg22
I13
ssg20
g23
sg22
I45
sg24
g446
sg19
(dp449
g19
(dp450
S'parallel_scale'
p451
F1
sS'view_up'
p452
(dp453
g19
S'H4sIAGg7El0C/2tgSs4rzS2o1EvOL0rVyy3NKclMLCpKrOSKL0pNzs8rLikqTS7hKmSEqOLKS4HI\nFjJ5M7SGMia1BxUya3gzejO3QhWklFQWpHIVsoQypVl4M3gzAhWwangzhzLa+Pn5ef0HAjDhzVCS\n1BkqwYACPtjDWCVJegAcHEnjmQAAAA==\n'
p454
sg20
g162
sg22
I47
ssS'use_horizontal_view_angle'
p455
I0
sS'use_off_axis_projection'
p456
I0
sS'use_off_axis_projection_'
p457
I0
sS'eye_angle'
p458
F2
sS'view_shear'
p459
(dp460
g19
S'H4sIAGg7El0C/2tgSs4rzS2o1EvOL0rVyy3NKclMLCpKrOSKL0pNzs8rLikqTS7hKmSEqOLKS4HI\nFjJ5M7SGMia1BxUya3gzejO3QhWklFQWpHIVsoQypVl4M3gzAhWwangzhzLa+Pn5ef0HAjDhzVCS\n1BkqwYAVfLAvSdIDAFBUFn+ZAAAA\n'
p461
sg20
g162
sg22
I48
ssS'thickness'
p462
F1000
sS'screen_bottom_left'
p463
(dp464
g19
S'H4sIAGg7El0C/2tgSs4rzS2o1EvOL0rVyy3NKclMLCpKrOSKL0pNzs8rLikqTS7hKmSEqOLKS4HI\nFjJ5M7SGMia1BxUya3gzejO3QhWklFQWpHIVsoQypVl4M3gzAhWwangzhzLa+Pn5ef0HAjDhzVCS\n1BkqwQAGD/aj0yVJegCccoLmmQAAAA==\n'
p465
sg20
g162
sg22
I50
ssS'clipping_range'
p466
(dp467
g19
S'H4sIAGg7El0C/2tgSs4rzS2o1EvOL0rVyy3NKclMLCpKrOSKL0pNzs8rLikqTS7hKmSEqOLKS4HI\nFjJ5M7SGMia1BxUya3gzejO1QhWklFQWpHIVsoQypVl4M3gzAhWwangzhzLa+Pn5ef0HAjDhzVCS\n1BkqUC2yzv1hVYs9iBRx6HcoSdIDABZ3KW+RAAAA\n'
p468
sg20
g162
sg22
I51
ssS'focal_point'
p469
(dp470
g19
S'H4sIAGg7El0C/2tgSs4rzS2o1EvOL0rVyy3NKclMLCpKrOSKL0pNzs8rLikqTS7hKmSEqOLKS4HI\nFjJ5M7SGMia1BxUya3gzejO3QhWklFQWpHIVsoQypVl4M3gzAhWwangzhzLa+Pn5ef0HAjDhzVCS\n1BkqwYADlCTpAQD67GqfmQAAAA==\n'
p471
sg20
g162
sg22
I49
ssS'window_center'
p472
(dp473
g19
S'H4sIAGg7El0C/2tgSs4rzS2o1EvOL0rVyy3NKclMLCpKrOSKL0pNzs8rLikqTS7hKmSEqOLKS4HI\nFjJ5M7SGMia1BxUya3gzejO1QhWklFQWpHIVsoQypVl4M3gzAhWwangzhzLa+Pn5ef0HAjDhzVCS\n1BkqwIAGSpL0ACtwOO6RAAAA\n'
p474
sg20
g162
sg22
I52
ssS'parallel_projection_'
p475
I0
sS'focal_disk'
p476
F1
sg170
I0
sg297
(dp477
g19
S'H4sIAGg7El0C/2tgSs4rzS2o1EvOL0rVyy3NKclMLCpKrOSKL0pNzs8rLikqTS7hKmSEqOLKS4HI\nFjJ5M7SGMia1BxUya3gzejO3QhWklFQWpHIVsoQypVl4M3gzAhWwangzhzLa+Pn5ef0HAjDhzVCS\n1BkqwYAVfLAvSdIDAFBUFn+ZAAAA\n'
p478
sg20
g162
sg22
I55
ssS'view_angle'
p479
F30
sS'screen_top_right'
p480
(dp481
g19
S'H4sIAGg7El0C/2tgSs4rzS2o1EvOL0rVyy3NKclMLCpKrOSKL0pNzs8rLikqTS7hKmSEqOLKS4HI\nFjJ5M7SGMia1BxUya3gzejO3QhWklFQWpHIVsoQypVl4M3gzAhWwangzhzLa+Pn5ef0HAjDhzVCS\n1BkqwQAGD+zR6P0lSXoAUF207ZkAAAA=\n'
p482
sg20
g162
sg22
I53
ssS'screen_bottom_right'
p483
(dp484
g19
S'H4sIAGg7El0C/2tgSs4rzS2o1EvOL0rVyy3NKclMLCpKrOSKL0pNzs8rLikqTS7hKmSEqOLKS4HI\nFjJ5M7SGMia1BxUya3gzejO3QhWklFQWpHIVsoQypVl4M3gzAhWwangzhzLa+Pn5ef0HAjDhzVCS\n1BkqwQAGD+yh9H4YXZKkBwCwMnONmQAAAA==\n'
p485
sg20
g162
sg22
I54
ssS'eye_separation'
p486
F0.059999999999999998
sS'distance'
p487
F1
sS'freeze_focal_point'
p488
I00
sg173
I0
sS'left_eye'
p489
I1
sg165
I0
sS'use_horizontal_view_angle_'
p490
I0
sS'parallel_projection'
p491
I0
ssg20
g44
sg22
I46
sssS'_renderer'
p492
(dp493
g2
(lp494
((S'CHasTraits'
S'traits.ctraits'
tI-1
tp495
a((g5
g6
tI-1
tp496
a((g8
g6
tI-1
tp497
a((g116
g117
tI-1
tp498
a((g119
g120
tI-1
tp499
a((g122
g123
tI-1
tp500
a((S'Viewport'
p501
S'tvtk.tvtk_classes.viewport'
p502
tI-1
tp503
a((S'Renderer'
p504
S'tvtk.tvtk_classes.renderer'
p505
tI-1
tp506
asg16
g504
sg17
(dp507
g19
Nsg20
g36
sg22
I13
ssg20
g23
sg22
I56
sg24
g505
sg19
(dp508
g19
(dp509
S'layer'
p510
I0
sS'draw_'
p511
I1
sS'pixel_aspect'
p512
(dp513
g19
S'H4sIAGg7El0C/2tgSs4rzS2o1EvOL0rVyy3NKclMLCpKrOSKL0pNzs8rLikqTS7hKmSEqOLKS4HI\nFjJ5M7SGMia1BxUya3gzejO1QhWklFQWpHIVsoQypVl4M3gzAhWwangzhzLa+Pn5ef0HAjDhzVCS\n1BkqwAAGH+xhdEmSHgBnOGdykQAAAA==\n'
p514
sg20
g162
sg22
I58
ssS'two_sided_lighting_'
p515
I1
sS'view_point'
p516
(dp517
g19
S'H4sIAGg7El0C/2tgSs4rzS2o1EvOL0rVyy3NKclMLCpKrOSKL0pNzs8rLikqTS7hKmSEqOLKS4HI\nFjJ5M7SGMia1BxUya3gzejO3QhWklFQWpHIVsoQypVl4M3gzAhWwangzhzLa+Pn5ef0HAjDhzVCS\n1BkqwYADlCTpAQD67GqfmQAAAA==\n'
p518
sg20
g162
sg22
I59
ssS'near_clipping_plane_tolerance'
p519
F0
sS'erase'
p520
I1
sS'textured_background_'
p521
I0
sS'aspect'
p522
(dp523
g19
S'H4sIAGg7El0C/2tgSs4rzS2o1EvOL0rVyy3NKclMLCpKrOSKL0pNzs8rLikqTS7hKmSEqOLKS4HI\nFjJ5M7SGMia1BxUya3gzejO1QhWklFQWpHIVsoQypVl4M3gzAhWwangzhzLa+Pn5ef0HAjDhzVCS\n1Bkq4FSgJbzNkcGBAQw+2Jck6QEAMPX/YZEAAAA=\n'
p524
sg20
g162
sg22
I60
ssS'ambient'
p525
(dp526
g19
S'H4sIAGg7El0C/2tgSs4rzS2o1EvOL0rVyy3NKclMLCpKrOSKL0pNzs8rLikqTS7hKmSEqOLKS4HI\nFjJ5M7SGMia1BxUya3gzejO3QhWklFQWpHIVsoQypVl4M3gzAhWwangzhzLa+Pn5ef0HAjDhzVCS\n1BkqwQAGH+zR6ZIkPQDfyO6fmQAAAA==\n'
p527
sg20
g162
sg22
I61
ssS'erase_'
p528
I1
sS'current_pick_id'
p529
I0
sS'use_depth_peeling_'
p530
I0
sS'use_depth_peeling'
p531
I0
sS'gradient_background'
p532
I00
sS'world_point'
p533
(dp534
g19
S'H4sIAGg7El0C/2tgSs4rzS2o1EvOL0rVyy3NKclMLCpKrOSKL0pNzs8rLikqTS7hKmSEqOLKS4HI\nFjJ5M7SGMia1BxUya3gzerO0QhWklFQWpHIVsoQypVl4M3gzAhWwangzhzLa+Pn5ef0HAjDhzVCS\n1BmqwEAAlCTpAQArcBtwoQAAAA==\n'
p535
sg20
g162
sg22
I62
ssS'draw'
p536
I1
sS'allocated_render_time'
p537
F10000
sS'maximum_number_of_peels'
p538
I4
sg170
I0
sS'occlusion_ratio'
p539
F0
sS'background'
p540
(dp541
g19
(F0.5
F0.5
F0.5
tp542
sg20
g21
sg22
I63
ssS'two_sided_lighting'
p543
I1
sS'textured_background'
p544
I00
sg370
I1
sS'background2'
p545
(dp546
g19
(F0.20000000000000001
F0.20000000000000001
F0.20000000000000001
tp547
sg20
g21
sg22
I64
ssS'viewport'
p548
(dp549
g19
S'H4sIAGg7El0C/2tgSs4rzS2o1EvOL0rVyy3NKclMLCpKrOSKL0pNzs8rLikqTS7hKmSEqOLKS4HI\nFjJ5M7SGMia1BxUya3gzerO0QhWklFQWpHIVsoQypVl4M3gzAhWwangzhzLa+Pn5ef0HAjDhzVCS\n1BmqwIAVfLCH0SVJegBnOETsoQAAAA==\n'
p550
sg20
g162
sg22
I65
ssS'preserve_depth_buffer'
p551
I0
sS'display_point'
p552
(dp553
g19
S'H4sIAGg7El0C/2tgSs4rzS2o1EvOL0rVyy3NKclMLCpKrOSKL0pNzs8rLikqTS7hKmSEqOLKS4HI\nFjJ5M7SGMia1BxUya3gzejO3QhWklFQWpHIVsoQypVl4M3gzAhWwangzhzLa+Pn5ef0HAjDhzVCS\n1BkqwYADlCTpAQD67GqfmQAAAA==\n'
p554
sg20
g162
sg22
I66
ssS'backing_store_'
p555
I0
sS'automatic_light_creation_'
p556
I1
sS'automatic_light_creation'
p557
I1
sS'preserve_depth_buffer_'
p558
I0
sg173
I0
sS'backing_store'
p559
I0
sS'light_follow_camera'
p560
I1
sg165
I0
sS'light_follow_camera_'
p561
I1
sS'gradient_background_'
p562
I0
sg377
I1
ssg20
g44
sg22
I57
sssS'line_smoothing'
p563
I00
sS'foreground'
p564
(dp565
g19
(F1
F1
F1
tp566
sg20
g21
sg22
I67
ssS'parent'
p567
NsS'point_smoothing'
p568
I00
sg540
(dp569
g19
Nsg20
g36
sg22
I63
ssS'off_screen_rendering'
p570
I00
sS'polygon_smoothing'
p571
I00
sS'stereo'
p572
I00
sS'disable_render'
p573
I00
sS'jpeg_quality'
p574
I95
sS'show_axes'
p575
I00
sg491
I00
sS'light_manager'
p576
(dp577
g2
(lp578
((S'CHasTraits'
S'traits.ctraits'
tI-1
tp579
a((g5
g6
tI-1
tp580
a((S'LightManager'
p581
S'tvtk.pyface.light_manager'
p582
tI0
tp583
asg16
g581
sg17
(dp584
g19
Nsg20
g36
sg22
I1
ssg20
g23
sg22
I68
sg24
g582
sg19
(dp585
g19
(dp586
S'light_mode'
p587
S'raymond'
p588
sS'lights'
p589
(dp590
g19
(lp591
(dp592
g2
(lp593
((S'CHasTraits'
S'traits.ctraits'
tI-1
tp594
a((g5
g6
tI-1
tp595
a((S'CameraLight'
p596
g582
tI0
tp597
asg16
g596
sg17
(dp598
g19
Nsg20
g36
sg22
I1
ssg20
g23
sg22
I71
sg24
g582
sg19
(dp599
g19
(dp600
S'activate'
p601
I01
sS'elevation'
p602
F45
sS'color'
p603
(dp604
g19
Nsg20
g36
sg22
I67
ssS'source'
p605
(dp606
g2
(lp607
((S'CHasTraits'
S'traits.ctraits'
tI-1
tp608
a((g5
g6
tI-1
tp609
a((g8
g6
tI-1
tp610
a((g116
g117
tI-1
tp611
a((g119
g120
tI-1
tp612
a((g122
g123
tI-1
tp613
a((S'Light'
p614
S'tvtk.tvtk_classes.light'
p615
tI-1
tp616
asg16
g614
sg17
(dp617
g19
Nsg20
g36
sg22
I13
ssg20
g23
sg22
I73
sg24
g615
sg19
(dp618
g19
(dp619
S'specular_color'
p620
(dp621
g19
Nsg20
g36
sg22
I67
ssS'attenuation_values'
p622
(dp623
g19
S'H4sIAGg7El0C/2tgSs4rzS2o1EvOL0rVyy3NKclMLCpKrOSKL0pNzs8rLikqTS7hKmSEqOLKS4HI\nFjJ5M7SGMia1BxUya3gzejO3QhWklFQWpHIVsoQypVl4M3gzAhWwangzhzLa+Pn5ef0HAjDhzVCS\n1BkqwQAGH+wZ0EBJkh4Ak4CxA5kAAAA=\n'
p624
sg20
g162
sg22
I78
ssS'switch_'
p625
I1
sS'exponent'
p626
F1
sS'switch'
p627
I1
sS'diffuse_color'
p628
(dp629
g19
Nsg20
g36
sg22
I67
ssS'light_type_'
p630
I2
sg173
I0
sS'ambient_color'
p631
(dp632
g19
(F0
F0
F0
tp633
sg20
g21
sg22
I75
ssS'positional'
p634
I0
sg170
I0
sS'intensity'
p635
F1
sS'light_type'
p636
S'camera_light'
p637
sg165
I0
sg297
(dp638
g19
S'H4sIAGg7El0C/2tgSs4rzS2o1EvOL0rVyy3NKclMLCpKrOSKL0pNzs8rLikqTS7hKmSEqOLKS4HI\nFjJ5M7SGMia1BxUya3gzejO3QhWklFQWpHIVsoQypVl4M3gzAhWwangzhzLa+Pn5ef0HAjDhzVCS\n1Bkq8Q/E/n/f/qx1fdq8Bc/sGcDggX1Jkh4AGCjHt5kAAAA=\n'
p639
sg20
g162
sg22
I76
ssS'positional_'
p640
I0
sS'cone_angle'
p641
F30
sg469
(dp642
g19
S'H4sIAGg7El0C/2tgSs4rzS2o1EvOL0rVyy3NKclMLCpKrOSKL0pNzs8rLikqTS7hKmSEqOLKS4HI\nFjJ5M7SGMia1BxUya3gzejO3QhWklFQWpHIVsoQypVl4M3gzAhWwangzhzLa+Pn5ef0HAjDhzVCS\n1BkqwYADlCTpAQD67GqfmQAAAA==\n'
p643
sg20
g162
sg22
I77
sssg20
g44
sg22
I74
sssg635
F1
sS'azimuth'
p644
F45
sS'glyph'
p645
(dp646
g2
(lp647
((S'CHasTraits'
S'traits.ctraits'
tI-1
tp648
a((g5
g6
tI-1
tp649
a((S'LightGlyph'
p650
g582
tI0
tp651
asg16
g650
sg17
(dp652
g19
Nsg20
g36
sg22
I1
ssg20
g23
sg22
I79
sg24
g582
sg19
(dp653
g19
(dp654
S'el'
p655
F45
sS'az'
p656
F45
sS'actor'
p657
(dp658
g2
(lp659
((S'CHasTraits'
S'traits.ctraits'
tI-1
tp660
a((g5
g6
tI-1
tp661
a((g8
g6
tI-1
tp662
a((g116
g117
tI-1
tp663
a((g119
g120
tI-1
tp664
a((g122
g123
tI-1
tp665
a((g269
g270
tI-1
tp666
a((g272
g273
tI-1
tp667
a((g275
g276
tI-1
tp668
a((S'Follower'
p669
S'tvtk.tvtk_classes.follower'
p670
tI-1
tp671
asg16
g669
sg17
(dp672
g19
Nsg20
g36
sg22
I13
ssg20
g23
sg22
I81
sg24
g670
sg19
(dp673
g19
(dp674
g281
(dp675
g19
S'H4sIAGg7El0C/2tgSs4rzS2o1EvOL0rVyy3NKclMLCpKrOSKL0pNzs8rLikqTS7hKmSEqOLKS4HI\nFjJ5M7SGMia1BxUya3gzejO3QhWklFQWpHIVsoQypVl4M3gzAhWwangzhzLa+Pn5ef0HAjDhzVCS\n1BkqwYADlCTpAQD67GqfmQAAAA==\n'
p676
sg20
g162
sg22
I83
ssg284
(dp677
g19
S'H4sIAGg7El0C/2tgSs4rzS2o1EvOL0rVyy3NKclMLCpKrOSKL0pNzs8rLikqTS7hKmSEqOLKS4HI\nFjJ5M7SGMia1BxUya3gzejO3QhWklFQWpHIVsoQypVl4M3gzAhWwangzhzLa+Pn5ef0HAjDhzVCS\n1BkqwQAGH+zR6ZIkPQDfyO6fmQAAAA==\n'
p678
sg20
g162
sg22
I85
ssg287
(dp679
g19
S'H4sIAGg7El0C/2tgSs4rzS2o1EvOL0rVyy3NKclMLCpKrOSKL0pNzs8rLikqTS7hKmSEqOLKS4HI\nFjJ5M7SGMia1BxUya3gzejO3QhWklFQWpHIVsoQypVl4M3gzAhWwangzhzLa+Pn5ef0HAjDhzVCS\n1Bkq8R8MbB0WTp1epRHn7ZCYldF6faHjgZIkPQBIslNUmQAAAA==\n'
p680
sg20
g162
sg22
I84
ssg290
F0
sg170
I0
sg165
I0
sg291
I1
sg292
I1
sg293
I1
sg294
I1
sg295
I1
sg173
I0
sg296
I1
sg297
(dp681
g19
S'H4sIAGg7El0C/2tgSs4rzS2o1EvOL0rVyy3NKclMLCpKrOSKL0pNzs8rLikqTS7hKmSEqOLKS4HI\nFjJ5M7SGMia1BxUya3gzejO3QhWklFQWpHIVsoQypVl4M3gzAhWwangzhzLa+Pn5ef0HAjDhzVCS\n1BkqwYADlCTpAQD67GqfmQAAAA==\n'
p682
sg20
g162
sg22
I86
ssg300
I1
sg301
F1
sg302
I01
ssg20
g44
sg22
I82
ssssg20
g44
sg22
I80
ssssg20
g44
sg22
I72
ssa(dp683
g2
(lp684
((S'CHasTraits'
S'traits.ctraits'
tI-1
tp685
a((g5
g6
tI-1
tp686
a((g596
g582
tI0
tp687
asg16
g596
sg17
(dp688
g19
Nsg20
g36
sg22
I1
ssg20
g23
sg22
I87
sg24
g582
sg19
(dp689
g19
(dp690
g601
I01
sg602
F-30
sg603
(dp691
g19
Nsg20
g36
sg22
I67
ssg605
(dp692
g2
(lp693
((S'CHasTraits'
S'traits.ctraits'
tI-1
tp694
a((g5
g6
tI-1
tp695
a((g8
g6
tI-1
tp696
a((g116
g117
tI-1
tp697
a((g119
g120
tI-1
tp698
a((g122
g123
tI-1
tp699
a((g614
g615
tI-1
tp700
asg16
g614
sg17
(dp701
g19
Nsg20
g36
sg22
I13
ssg20
g23
sg22
I89
sg24
g615
sg19
(dp702
g19
(dp703
g620
(dp704
g19
Nsg20
g36
sg22
I67
ssg622
(dp705
g19
S'H4sIAGg7El0C/2tgSs4rzS2o1EvOL0rVyy3NKclMLCpKrOSKL0pNzs8rLikqTS7hKmSEqOLKS4HI\nFjJ5M7SGMia1BxUya3gzejO3QhWklFQWpHIVsoQypVl4M3gzAhWwangzhzLa+Pn5ef0HAjDhzVCS\n1BkqwQAGH+wZ0EBJkh4Ak4CxA5kAAAA=\n'
p706
sg20
g162
sg22
I93
ssg625
I1
sg626
F1
sg627
I1
sg628
(dp707
g19
Nsg20
g36
sg22
I67
ssg630
I2
sg173
I0
sg631
(dp708
g19
Nsg20
g36
sg22
I75
ssg634
I0
sg170
I0
sg635
F0.59999999999999998
sg636
g637
sg165
I0
sg297
(dp709
g19
S'H4sIAGg7El0C/2tgSs4rzS2o1EvOL0rVyy3NKclMLCpKrOSKL0pNzs8rLikqTS7hKmSEqOLKS4HI\nFjJ5M7SGMia1BxUya3gzejO3QhWklFQWpHIVsoQypVl4M3gzAhWwangzhzLa+Pn5ef0HAjDhzVCS\n1BkqwQAGL/b/AYn9v79/rU/Ei6ptt+1LkvQAaH/w3pkAAAA=\n'
p710
sg20
g162
sg22
I91
ssg640
I0
sg641
F30
sg469
(dp711
g19
S'H4sIAGg7El0C/2tgSs4rzS2o1EvOL0rVyy3NKclMLCpKrOSKL0pNzs8rLikqTS7hKmSEqOLKS4HI\nFjJ5M7SGMia1BxUya3gzejO3QhWklFQWpHIVsoQypVl4M3gzAhWwangzhzLa+Pn5ef0HAjDhzVCS\n1BkqwYADlCTpAQD67GqfmQAAAA==\n'
p712
sg20
g162
sg22
I92
sssg20
g44
sg22
I90
sssg635
F0.59999999999999998
sg644
F-60
sg645
(dp713
g2
(lp714
((S'CHasTraits'
S'traits.ctraits'
tI-1
tp715
a((g5
g6
tI-1
tp716
a((g650
g582
tI0
tp717
asg16
g650
sg17
(dp718
g19
Nsg20
g36
sg22
I1
ssg20
g23
sg22
I94
sg24
g582
sg19
(dp719
g19
(dp720
g655
F-30
sg656
F-60
sg657
(dp721
g2
(lp722
((S'CHasTraits'
S'traits.ctraits'
tI-1
tp723
a((g5
g6
tI-1
tp724
a((g8
g6
tI-1
tp725
a((g116
g117
tI-1
tp726
a((g119
g120
tI-1
tp727
a((g122
g123
tI-1
tp728
a((g269
g270
tI-1
tp729
a((g272
g273
tI-1
tp730
a((g275
g276
tI-1
tp731
a((g669
g670
tI-1
tp732
asg16
g669
sg17
(dp733
g19
Nsg20
g36
sg22
I13
ssg20
g23
sg22
I96
sg24
g670
sg19
(dp734
g19
(dp735
g281
(dp736
g19
S'H4sIAGg7El0C/2tgSs4rzS2o1EvOL0rVyy3NKclMLCpKrOSKL0pNzs8rLikqTS7hKmSEqOLKS4HI\nFjJ5M7SGMia1BxUya3gzejO3QhWklFQWpHIVsoQypVl4M3gzAhWwangzhzLa+Pn5ef0HAjDhzVCS\n1BkqwYADlCTpAQD67GqfmQAAAA==\n'
p737
sg20
g162
sg22
I98
ssg284
(dp738
g19
S'H4sIAGg7El0C/2tgSs4rzS2o1EvOL0rVyy3NKclMLCpKrOSKL0pNzs8rLikqTS7hKmSEqOLKS4HI\nFjJ5M7SGMia1BxUya3gzejO3QhWklFQWpHIVsoQypVl4M3gzAhWwangzhzLa+Pn5ef0HAjDhzVCS\n1BkqwQAGH+zR6ZIkPQDfyO6fmQAAAA==\n'
p739
sg20
g162
sg22
I100
ssg287
(dp740
g19
S'H4sIAGg7El0C/2tgSs4rzS2o1EvOL0rVyy3NKclMLCpKrOSKL0pNzs8rLikqTS7hKmSEqOLKS4HI\nFjJ5M7SGMia1BxUya3gzejO3QhWklFQWpHIVsoQypVl4M3gzAhWwangzhzLa+Pn5ef0HAjDhzVCS\n1BkqkciqU1XzReeAzEed9DXb/Q8ckl1muHyC1YGSJD0AQQ5XHpkAAAA=\n'
p741
sg20
g162
sg22
I99
ssg290
F0
sg170
I0
sg165
I0
sg291
I1
sg292
I1
sg293
I1
sg294
I1
sg295
I1
sg173
I0
sg296
I1
sg297
(dp742
g19
S'H4sIAGg7El0C/2tgSs4rzS2o1EvOL0rVyy3NKclMLCpKrOSKL0pNzs8rLikqTS7hKmSEqOLKS4HI\nFjJ5M7SGMia1BxUya3gzejO3QhWklFQWpHIVsoQypVl4M3gzAhWwangzhzLa+Pn5ef0HAjDhzVCS\n1BkqwYADlCTpAQD67GqfmQAAAA==\n'
p743
sg20
g162
sg22
I101
ssg300
I1
sg301
F1
sg302
I01
ssg20
g44
sg22
I97
ssssg20
g44
sg22
I95
ssssg20
g44
sg22
I88
ssa(dp744
g2
(lp745
((S'CHasTraits'
S'traits.ctraits'
tI-1
tp746
a((g5
g6
tI-1
tp747
a((g596
g582
tI0
tp748
asg16
g596
sg17
(dp749
g19
Nsg20
g36
sg22
I1
ssg20
g23
sg22
I102
sg24
g582
sg19
(dp750
g19
(dp751
g601
I01
sg602
F-30
sg603
(dp752
g19
Nsg20
g36
sg22
I67
ssg605
(dp753
g2
(lp754
((S'CHasTraits'
S'traits.ctraits'
tI-1
tp755
a((g5
g6
tI-1
tp756
a((g8
g6
tI-1
tp757
a((g116
g117
tI-1
tp758
a((g119
g120
tI-1
tp759
a((g122
g123
tI-1
tp760
a((g614
g615
tI-1
tp761
asg16
g614
sg17
(dp762
g19
Nsg20
g36
sg22
I13
ssg20
g23
sg22
I104
sg24
g615
sg19
(dp763
g19
(dp764
g620
(dp765
g19
Nsg20
g36
sg22
I67
ssg622
(dp766
g19
S'H4sIAGg7El0C/2tgSs4rzS2o1EvOL0rVyy3NKclMLCpKrOSKL0pNzs8rLikqTS7hKmSEqOLKS4HI\nFjJ5M7SGMia1BxUya3gzejO3QhWklFQWpHIVsoQypVl4M3gzAhWwangzhzLa+Pn5ef0HAjDhzVCS\n1BkqwQAGH+wZ0EBJkh4Ak4CxA5kAAAA=\n'
p767
sg20
g162
sg22
I108
ssg625
I1
sg626
F1
sg627
I1
sg628
(dp768
g19
Nsg20
g36
sg22
I67
ssg630
I2
sg173
I0
sg631
(dp769
g19
Nsg20
g36
sg22
I75
ssg634
I0
sg170
I0
sg635
F0.5
sg636
g637
sg165
I0
sg297
(dp770
g19
S'H4sIAGg7El0C/2tgSs4rzS2o1EvOL0rVyy3NKclMLCpKrOSKL0pNzs8rLikqTS7hKmSEqOLKS4HI\nFjJ5M7SGMia1BxUya3gzejO3QhWklFQWpHIVsoQypVl4M3gzAhWwangzhzLa+Pn5ef0HAjDhzVCS\n1BkqwQAGL+z/gMT+39+/1ifiRdW22/YlSXoARD8BtZkAAAA=\n'
p771
sg20
g162
sg22
I106
ssg640
I0
sg641
F30
sg469
(dp772
g19
S'H4sIAGg7El0C/2tgSs4rzS2o1EvOL0rVyy3NKclMLCpKrOSKL0pNzs8rLikqTS7hKmSEqOLKS4HI\nFjJ5M7SGMia1BxUya3gzejO3QhWklFQWpHIVsoQypVl4M3gzAhWwangzhzLa+Pn5ef0HAjDhzVCS\n1BkqwYADlCTpAQD67GqfmQAAAA==\n'
p773
sg20
g162
sg22
I107
sssg20
g44
sg22
I105
sssg635
F0.5
sg644
F60
sg645
(dp774
g2
(lp775
((S'CHasTraits'
S'traits.ctraits'
tI-1
tp776
a((g5
g6
tI-1
tp777
a((g650
g582
tI0
tp778
asg16
g650
sg17
(dp779
g19
Nsg20
g36
sg22
I1
ssg20
g23
sg22
I109
sg24
g582
sg19
(dp780
g19
(dp781
g655
F-30
sg656
F60
sg657
(dp782
g2
(lp783
((S'CHasTraits'
S'traits.ctraits'
tI-1
tp784
a((g5
g6
tI-1
tp785
a((g8
g6
tI-1
tp786
a((g116
g117
tI-1
tp787
a((g119
g120
tI-1
tp788
a((g122
g123
tI-1
tp789
a((g269
g270
tI-1
tp790
a((g272
g273
tI-1
tp791
a((g275
g276
tI-1
tp792
a((g669
g670
tI-1
tp793
asg16
g669
sg17
(dp794
g19
Nsg20
g36
sg22
I13
ssg20
g23
sg22
I111
sg24
g670
sg19
(dp795
g19
(dp796
g281
(dp797
g19
S'H4sIAGg7El0C/2tgSs4rzS2o1EvOL0rVyy3NKclMLCpKrOSKL0pNzs8rLikqTS7hKmSEqOLKS4HI\nFjJ5M7SGMia1BxUya3gzejO3QhWklFQWpHIVsoQypVl4M3gzAhWwangzhzLa+Pn5ef0HAjDhzVCS\n1BkqwYADlCTpAQD67GqfmQAAAA==\n'
p798
sg20
g162
sg22
I113
ssg284
(dp799
g19
S'H4sIAGg7El0C/2tgSs4rzS2o1EvOL0rVyy3NKclMLCpKrOSKL0pNzs8rLikqTS7hKmSEqOLKS4HI\nFjJ5M7SGMia1BxUya3gzejO3QhWklFQWpHIVsoQypVl4M3gzAhWwangzhzLa+Pn5ef0HAjDhzVCS\n1BkqwQAGH+zR6ZIkPQDfyO6fmQAAAA==\n'
p800
sg20
g162
sg22
I115
ssg287
(dp801
g19
S'H4sIAGg7El0C/2tgSs4rzS2o1EvOL0rVyy3NKclMLCpKrOSKL0pNzs8rLikqTS7hKmSEqOLKS4HI\nFjJ5M7SGMia1BxUya3gzejO3QhWklFQWpHIVsoQypVl4M3gzAhWwangzhzLa+Pn5ef0HAjDhzVCS\n1BkqkciqU1XzReeAzEed9DXb/R0OyS4zXD7ByqEkSQ8AmtfJk5kAAAA=\n'
p802
sg20
g162
sg22
I114
ssg290
F0
sg170
I0
sg165
I0
sg291
I1
sg292
I1
sg293
I1
sg294
I1
sg295
I1
sg173
I0
sg296
I1
sg297
(dp803
g19
S'H4sIAGg7El0C/2tgSs4rzS2o1EvOL0rVyy3NKclMLCpKrOSKL0pNzs8rLikqTS7hKmSEqOLKS4HI\nFjJ5M7SGMia1BxUya3gzejO3QhWklFQWpHIVsoQypVl4M3gzAhWwangzhzLa+Pn5ef0HAjDhzVCS\n1BkqwYADlCTpAQD67GqfmQAAAA==\n'
p804
sg20
g162
sg22
I116
ssg300
I1
sg301
F1
sg302
I01
ssg20
g44
sg22
I112
ssssg20
g44
sg22
I110
ssssg20
g44
sg22
I103
ssa(dp805
g2
(lp806
((S'CHasTraits'
S'traits.ctraits'
tI-1
tp807
a((g5
g6
tI-1
tp808
a((g596
g582
tI0
tp809
asg16
g596
sg17
(dp810
g19
Nsg20
g36
sg22
I1
ssg20
g23
sg22
I117
sg24
g582
sg19
(dp811
g19
(dp812
g601
I00
sg602
F0
sg603
(dp813
g19
Nsg20
g36
sg22
I67
ssg605
(dp814
g2
(lp815
((S'CHasTraits'
S'traits.ctraits'
tI-1
tp816
a((g5
g6
tI-1
tp817
a((g8
g6
tI-1
tp818
a((g116
g117
tI-1
tp819
a((g119
g120
tI-1
tp820
a((g122
g123
tI-1
tp821
a((g614
g615
tI-1
tp822
asg16
g614
sg17
(dp823
g19
Nsg20
g36
sg22
I13
ssg20
g23
sg22
I119
sg24
g615
sg19
(dp824
g19
(dp825
g620
(dp826
g19
Nsg20
g36
sg22
I67
ssg622
(dp827
g19
S'H4sIAGg7El0C/2tgSs4rzS2o1EvOL0rVyy3NKclMLCpKrOSKL0pNzs8rLikqTS7hKmSEqOLKS4HI\nFjJ5M7SGMia1BxUya3gzejO3QhWklFQWpHIVsoQypVl4M3gzAhWwangzhzLa+Pn5ef0HAjDhzVCS\n1BkqwQAGH+wZ0EBJkh4Ak4CxA5kAAAA=\n'
p828
sg20
g162
sg22
I123
ssg625
I0
sg626
F1
sg627
I0
sg628
(dp829
g19
Nsg20
g36
sg22
I67
ssg630
I2
sg173
I0
sg631
(dp830
g19
Nsg20
g36
sg22
I75
ssg634
I0
sg170
I0
sg635
F1
sg636
g637
sg165
I0
sg297
(dp831
g19
S'H4sIAGg7El0C/2tgSs4rzS2o1EvOL0rVyy3NKclMLCpKrOSKL0pNzs8rLikqTS7hKmSEqOLKS4HI\nFjJ5M7SGMia1BxUya3gzejO3QhWklFQWpHIVsoQypVl4M3gzAhWwangzhzLa+Pn5ef0HAjDhzVCS\n1BkqwYAVfLAvSdIDAFBUFn+ZAAAA\n'
p832
sg20
g162
sg22
I121
ssg640
I0
sg641
F30
sg469
(dp833
g19
S'H4sIAGg7El0C/2tgSs4rzS2o1EvOL0rVyy3NKclMLCpKrOSKL0pNzs8rLikqTS7hKmSEqOLKS4HI\nFjJ5M7SGMia1BxUya3gzejO3QhWklFQWpHIVsoQypVl4M3gzAhWwangzhzLa+Pn5ef0HAjDhzVCS\n1BkqwYADlCTpAQD67GqfmQAAAA==\n'
p834
sg20
g162
sg22
I122
sssg20
g44
sg22
I120
sssg635
F1
sg644
F0
sg645
(dp835
g2
(lp836
((S'CHasTraits'
S'traits.ctraits'
tI-1
tp837
a((g5
g6
tI-1
tp838
a((g650
g582
tI0
tp839
asg16
g650
sg17
(dp840
g19
Nsg20
g36
sg22
I1
ssg20
g23
sg22
I124
sg24
g582
sg19
(dp841
g19
(dp842
g655
F0
sg656
F0
sg657
(dp843
g2
(lp844
((S'CHasTraits'
S'traits.ctraits'
tI-1
tp845
a((g5
g6
tI-1
tp846
a((g8
g6
tI-1
tp847
a((g116
g117
tI-1
tp848
a((g119
g120
tI-1
tp849
a((g122
g123
tI-1
tp850
a((g269
g270
tI-1
tp851
a((g272
g273
tI-1
tp852
a((g275
g276
tI-1
tp853
a((g669
g670
tI-1
tp854
asg16
g669
sg17
(dp855
g19
Nsg20
g36
sg22
I13
ssg20
g23
sg22
I126
sg24
g670
sg19
(dp856
g19
(dp857
g281
(dp858
g19
S'H4sIAGg7El0C/2tgSs4rzS2o1EvOL0rVyy3NKclMLCpKrOSKL0pNzs8rLikqTS7hKmSEqOLKS4HI\nFjJ5M7SGMia1BxUya3gzejO3QhWklFQWpHIVsoQypVl4M3gzAhWwangzhzLa+Pn5ef0HAjDhzVCS\n1BkqwYADlCTpAQD67GqfmQAAAA==\n'
p859
sg20
g162
sg22
I128
ssg284
(dp860
g19
S'H4sIAGg7El0C/2tgSs4rzS2o1EvOL0rVyy3NKclMLCpKrOSKL0pNzs8rLikqTS7hKmSEqOLKS4HI\nFjJ5M7SGMia1BxUya3gzejO3QhWklFQWpHIVsoQypVl4M3gzAhWwangzhzLa+Pn5ef0HAjDhzVCS\n1BkqwQAGH+zR6ZIkPQDfyO6fmQAAAA==\n'
p861
sg20
g162
sg22
I130
ssg287
(dp862
g19
S'H4sIAGg7El0C/2tgSs4rzS2o1EvOL0rVyy3NKclMLCpKrOSKL0pNzs8rLikqTS7hKmSEqOLKS4HI\nFjJ5M7SGMia1BxUya3gzejO3QhWklFQWpHIVsoQypVl4M3gzAhWwangzhzLa+Pn5ef0HAjDhzVCS\n1BkqwYAKGmCMkiQ9ABqDrf+ZAAAA\n'
p863
sg20
g162
sg22
I129
ssg290
F0
sg170
I0
sg165
I0
sg291
I1
sg292
I0
sg293
I1
sg294
I1
sg295
I1
sg173
I0
sg296
I0
sg297
(dp864
g19
S'H4sIAGg7El0C/2tgSs4rzS2o1EvOL0rVyy3NKclMLCpKrOSKL0pNzs8rLikqTS7hKmSEqOLKS4HI\nFjJ5M7SGMia1BxUya3gzejO3QhWklFQWpHIVsoQypVl4M3gzAhWwangzhzLa+Pn5ef0HAjDhzVCS\n1BkqwYADlCTpAQD67GqfmQAAAA==\n'
p865
sg20
g162
sg22
I131
ssg300
I1
sg301
F1
sg302
I01
ssg20
g44
sg22
I127
ssssg20
g44
sg22
I125
ssssg20
g44
sg22
I118
ssasg20
S'list'
p866
sg22
I70
ssS'number_of_lights'
p867
I4
ssg20
g44
sg22
I69
sssS'_def_pos'
p868
I1
ssg20
g44
sg22
I9
sssS'_saved_state'
p869
S''
sg20
S' scene'
p870
sS'children'
p871
(dp872
g19
(lp873
sg20
g866
sg22
I132
ssS'icon'
p874
S'scene.ico'
p875
ssg20
g44
sg22
I7
ssa(dp876
g2
(lp877
((S'CHasTraits'
S'traits.ctraits'
tI-1
tp878
a((g5
g6
tI-1
tp879
a((g61
g6
tI-1
tp880
a((g63
g64
tI-1
tp881
a((g66
g67
tI0
tp882
a((g69
g70
tI0
tp883
asg16
g69
sg17
(dp884
g19
Nsg20
g36
sg22
I1
ssg20
g23
sg22
I133
sg24
g70
sg19
(dp885
g19
(dp886
g27
VMayavi Scene 1
p887
sg76
(dp888
g2
(lp889
((S'CHasTraits'
S'traits.ctraits'
tI-1
tp890
a((g5
g6
tI-1
tp891
a((g81
g82
tI-1
tp892
a((g84
g85
tI-1
tp893
a((g61
g6
tI-1
tp894
a((g88
g89
tI0
tp895
a((g69
g91
tI0
tp896
a((g93
g94
tI0
tp897
asg16
g93
sg17
(dp898
g19
Nsg20
g36
sg22
I1
ssg20
g23
sg22
I135
sg24
g94
sg19
(dp899
g19
(dp900
g99
(dp901
g2
(lp902
((S'CHasTraits'
S'traits.ctraits'
tI-1
tp903
a((g5
g6
tI-1
tp904
a((g104
g105
tI0
tp905
asg16
g104
sg17
(dp906
g19
Nsg20
g36
sg22
I1
ssg20
g23
sg22
I137
sg24
g105
sg19
(dp907
g19
(dp908
g110
(dp909
g2
(lp910
((S'CHasTraits'
S'traits.ctraits'
tI-1
tp911
a((g5
g6
tI-1
tp912
a((g8
g6
tI-1
tp913
a((g116
g117
tI-1
tp914
a((g119
g120
tI-1
tp915
a((g122
g123
tI-1
tp916
a((g125
g126
tI-1
tp917
a((g128
g129
tI-1
tp918
a((g131
g132
tI-1
tp919
a((g134
g135
tI-1
tp920
a((g137
g138
tI-1
tp921
asg16
g137
sg17
(dp922
g19
Nsg20
g36
sg22
I13
ssg20
g23
sg22
I139
sg24
g138
sg19
(dp923
g19
(dp924
g144
I0
sg145
I0
sg146
g147
sg148
I0
sg149
I0
sg150
F0.01
sg151
I0
sg152
g147
sg153
I0
sg154
I0
sg155
I0
sg156
I0
sg157
I0
sg158
F0
sg159
(dp925
g19
S'H4sIAGg7El0C/2tgSs4rzS2o1EvOL0rVyy3NKclMLCpKrOSKL0pNzs8rLikqTS7hKmSEqOLKS4HI\nFjJ5M7SGMia1BxUya3gzejO1QhWklFQWpHIVsoQypVl4M3gzAhWwangzhzLa+Pn5ef0HAjDhzVCS\n1BkqwIACPtiXJOkBAIHIRA6RAAAA\n'
p926
sg20
g162
sg22
I141
ssg163
Nsg164
I0
sg165
I0
sg166
I0
sg167
I0
sg168
I1
sg169
L-1L
sg170
I0
sg171
I0
sg172
I1
sg173
I0
sg174
I1
sg175
I0
sg176
F0
sg177
I1
sg178
g147
sg179
I0
sg180
I0
sg181
I0
sg182
g183
sg184
I1
ssg20
g44
sg22
I140
sssg185
(dp927
g2
(lp928
((S'CHasTraits'
S'traits.ctraits'
tI-1
tp929
a((g5
g6
tI-1
tp930
a((g8
g6
tI-1
tp931
a((g116
g117
tI-1
tp932
a((g119
g120
tI-1
tp933
a((g122
g123
tI-1
tp934
a((g194
g195
tI-1
tp935
a((g197
g198
tI-1
tp936
asg16
g197
sg17
(dp937
g19
Nsg20
g36
sg22
I13
ssg20
g23
sg22
I142
sg24
g198
sg19
(dp938
g19
(dp939
g165
I0
sg170
I0
sg203
I0
sg173
I0
sg204
I0
ssg20
g44
sg22
I143
sssg205
(dp940
g2
(lp941
((S'CHasTraits'
S'traits.ctraits'
tI-1
tp942
a((g5
g6
tI-1
tp943
a((g8
g6
tI-1
tp944
a((g116
g117
tI-1
tp945
a((g119
g120
tI-1
tp946
a((g122
g123
tI-1
tp947
a((g214
g215
tI-1
tp948
a((g217
g218
tI-1
tp949
a((g220
g221
tI-1
tp950
a((g223
g224
tI-1
tp951
asg16
g223
sg17
(dp952
g19
Nsg20
g36
sg22
I13
ssg20
g23
sg22
I144
sg24
g224
sg19
(dp953
g19
(dp954
g165
I0
sg170
I0
sg229
I0
sg173
I0
sg230
I0
ssg20
g44
sg22
I145
sssg231
(dp955
g2
(lp956
((S'CHasTraits'
S'traits.ctraits'
tI-1
tp957
a((g5
g6
tI-1
tp958
a((g8
g6
tI-1
tp959
a((g116
g117
tI-1
tp960
a((g119
g120
tI-1
tp961
a((g122
g123
tI-1
tp962
a((g194
g195
tI-1
tp963
a((g241
g242
tI-1
tp964
a((g104
g244
tI-1
tp965
a((g246
g247
tI-1
tp966
asg16
g246
sg17
(dp967
g19
Nsg20
g36
sg22
I13
ssg20
g23
sg22
I146
sg24
g247
sg19
(dp968
g19
(dp969
g252
I0
sg253
I0
sg254
I0
sg173
I0
sg204
I0
sg170
I0
sg203
I0
sg255
I0
sg256
I0
sg257
F0.050000000000000003
sg165
I0
sg258
F0.025000000000000001
sg259
I0
ssg20
g44
sg22
I147
sssg260
(dp970
g2
(lp971
((S'CHasTraits'
S'traits.ctraits'
tI-1
tp972
a((g5
g6
tI-1
tp973
a((g8
g6
tI-1
tp974
a((g116
g117
tI-1
tp975
a((g119
g120
tI-1
tp976
a((g122
g123
tI-1
tp977
a((g269
g270
tI-1
tp978
a((g272
g273
tI-1
tp979
a((g275
g276
tI-1
tp980
asg16
g275
sg17
(dp981
g19
Nsg20
g36
sg22
I13
ssg20
g23
sg22
I148
sg24
g276
sg19
(dp982
g19
(dp983
g281
(dp984
g19
S'H4sIAGg7El0C/2tgSs4rzS2o1EvOL0rVyy3NKclMLCpKrOSKL0pNzs8rLikqTS7hKmSEqOLKS4HI\nFjJ5M7SGMia1BxUya3gzejO3QhWklFQWpHIVsoQypVl4M3gzAhWwangzhzLa+Pn5ef0HAjDhzVCS\n1BkqwYADlCTpAQD67GqfmQAAAA==\n'
p985
sg20
g162
sg22
I150
ssg284
(dp986
g19
S'H4sIAGg7El0C/2tgSs4rzS2o1EvOL0rVyy3NKclMLCpKrOSKL0pNzs8rLikqTS7hKmSEqOLKS4HI\nFjJ5M7SGMia1BxUya3gzejO3QhWklFQWpHIVsoQypVl4M3gzAhWwangzhzLa+Pn5ef0HAjDhzVCS\n1BkqwQAGH+zR6ZIkPQDfyO6fmQAAAA==\n'
p987
sg20
g162
sg22
I152
ssg287
(dp988
g19
S'H4sIAGg7El0C/2tgSs4rzS2o1EvOL0rVyy3NKclMLCpKrOSKL0pNzs8rLikqTS7hKmSEqOLKS4HI\nFjJ5M7SGMia1BxUya3gzejO3QhWklFQWpHIVsoQypVl4M3gzAhWwangzhzLa+Pn5ef0HAjDhzVCS\n1BkqwYAKGmCMkiQ9ABqDrf+ZAAAA\n'
p989
sg20
g162
sg22
I151
ssg290
F0
sg170
I0
sg165
I0
sg291
I1
sg292
I0
sg293
I0
sg294
I1
sg295
I1
sg173
I0
sg296
I0
sg297
(dp990
g19
S'H4sIAGg7El0C/2tgSs4rzS2o1EvOL0rVyy3NKclMLCpKrOSKL0pNzs8rLikqTS7hKmSEqOLKS4HI\nFjJ5M7SGMia1BxUya3gzejO3QhWklFQWpHIVsoQypVl4M3gzAhWwangzhzLa+Pn5ef0HAjDhzVCS\n1BkqwYADlCTpAQD67GqfmQAAAA==\n'
p991
sg20
g162
sg22
I153
ssg300
I0
sg301
F1
sg302
I01
ssg20
g44
sg22
I149
sssg303
(dp992
g2
(lp993
((S'CHasTraits'
S'traits.ctraits'
tI-1
tp994
a((g5
g6
tI-1
tp995
a((g8
g6
tI-1
tp996
a((g116
g117
tI-1
tp997
a((g119
g120
tI-1
tp998
a((g122
g123
tI-1
tp999
a((g125
g126
tI-1
tp1000
a((g313
g314
tI-1
tp1001
a((g316
g317
tI-1
tp1002
asg16
g316
sg17
(dp1003
g19
Nsg20
g36
sg22
I13
ssg20
g23
sg22
I154
sg24
g317
sg19
(dp1004
g19
(dp1005
g281
(dp1006
g19
S'H4sIAGg7El0C/2tgSs4rzS2o1EvOL0rVyy3NKclMLCpKrOSKL0pNzs8rLikqTS7hKmSEqOLKS4HI\nFjJ5M7SGMia1BxUya3gzejO3QhWklFQWpHIVsoQypVl4M3gzAhWwangzhzLa+Pn5ef0HAjDhzVCS\n1BkqwYADlCTpAQD67GqfmQAAAA==\n'
p1007
sg20
g162
sg22
I156
ssg324
F1
sg325
I1
sg171
I0
sg163
Nsg326
I1
sg165
I0
sg327
I1
sg170
I0
sg156
I0
sg173
I0
sg157
I0
sg179
I0
sg158
F0
sg328
I1
ssg20
g44
sg22
I155
sssg258
F0.025000000000000001
sg329
(dp1008
g2
(lp1009
((S'CHasTraits'
S'traits.ctraits'
tI-1
tp1010
a((g5
g6
tI-1
tp1011
a((g8
g6
tI-1
tp1012
a((g116
g117
tI-1
tp1013
a((g119
g120
tI-1
tp1014
a((g122
g123
tI-1
tp1015
a((g194
g195
tI-1
tp1016
a((g241
g242
tI-1
tp1017
a((g104
g244
tI-1
tp1018
a((g341
g342
tI-1
tp1019
asg16
g341
sg17
(dp1020
g19
Nsg20
g36
sg22
I13
ssg20
g23
sg22
I157
sg24
g342
sg19
(dp1021
g19
(dp1022
g347
I0
sg173
I0
sg204
I0
sg170
I0
sg203
I0
sg348
I0
sg165
I0
sg258
F0.025000000000000001
ssg20
g44
sg22
I158
ssssg20
g44
sg22
I138
sssg349
I8
sg350
(dp1023
g2
(lp1024
((S'CHasTraits'
S'traits.ctraits'
tI-1
tp1025
a((g5
g6
tI-1
tp1026
a((g8
g6
tI-1
tp1027
a((g116
g117
tI-1
tp1028
a((g119
g120
tI-1
tp1029
a((g122
g123
tI-1
tp1030
a((g359
g360
tI-1
tp1031
a((g362
g363
tI-1
tp1032
asg16
g362
sg17
(dp1033
g19
Nsg20
g36
sg22
I13
ssg20
g23
sg22
I159
sg24
g363
sg19
(dp1034
g19
(dp1035
g368
S'i'
sg258
I7
sg369
I0
sg173
I0
sg370
I1
sg371
F0.55000001192092896
sg170
I0
sg372
I0
sg373
I01
sg374
I0
sg165
I0
sg375
I0
sg376
I1
sg377
I1
ssg20
g44
sg22
I160
sssg378
I01
sg379
(dp1036
g2
(lp1037
((S'CHasTraits'
S'traits.ctraits'
tI-1
tp1038
a((g5
g6
tI-1
tp1039
a((g8
g6
tI-1
tp1040
a((g116
g117
tI-1
tp1041
a((g119
g120
tI-1
tp1042
a((g122
g123
tI-1
tp1043
a((g269
g270
tI-1
tp1044
a((g272
g273
tI-1
tp1045
a((g390
g391
tI-1
tp1046
asg16
g390
sg17
(dp1047
g19
Nsg20
g36
sg22
I13
ssg20
g23
sg22
I161
sg24
g391
sg19
(dp1048
g19
(dp1049
g281
(dp1050
g19
S'H4sIAGg7El0C/2tgSs4rzS2o1EvOL0rVyy3NKclMLCpKrOSKL0pNzs8rLikqTS7hKmSEqOLKS4HI\nFjJ5M7SGMia1BxUya3gzejO3QhWklFQWpHIVsoQypVl4M3gzAhWwangzhzLa+Pn5ef0HAjDhzVCS\n1BkqwYADlCTpAQD67GqfmQAAAA==\n'
p1051
sg20
g162
sg22
I163
ssg287
(dp1052
g19
S'H4sIAGg7El0C/2tgSs4rzS2o1EvOL0rVyy3NKclMLCpKrOSKL0pNzs8rLikqTS7hKmSEqOLKS4HI\nFjJ5M7SGMia1BxUya3gzejO3QhWklFQWpHIVsoQypVl4M3gzAhWwangzhzLa+Pn5ef0HAjDhzVCS\n1BkqwYAKGmCMkiQ9ABqDrf+ZAAAA\n'
p1053
sg20
g162
sg22
I164
ssg400
(dp1054
g19
S'H4sIAGg7El0C/2tgSs4rzS2o1EvOL0rVyy3NKclMLCpKrOSKL0pNzs8rLikqTS7hKmSEqOLKS4HI\nFjJ5M7SGMia1BxUya3gzejO3QhWklFQWpHIVsoQypVl4M3gzAhWwangzhzLa+Pn5ef0HAjDhzVCS\n1BkqMWsmCNy0R6dLkvQABNrUG5kAAAA=\n'
p1055
sg20
g162
sg22
I165
ssg291
I1
sg293
I1
sg295
I1
sg403
I16
sg296
I1
sg173
I0
sg284
(dp1056
g19
S'H4sIAGg7El0C/2tgSs4rzS2o1EvOL0rVyy3NKclMLCpKrOSKL0pNzs8rLikqTS7hKmSEqOLKS4HI\nFjJ5M7SGMia1BxUya3gzejO3QhWklFQWpHIVsoQypVl4M3gzAhWwangzhzLa+Pn5ef0HAjDhzVCS\n1BkqwQAGH+zR6ZIkPQDfyO6fmQAAAA==\n'
p1057
sg20
g162
sg22
I166
ssg406
F0.050000000000000003
sg407
I16
sg408
I16
sg409
I1
sg410
(dp1058
g19
S'H4sIAGg7El0C/2tgSs4rzS2o1EvOL0rVyy3NKclMLCpKrOSKL0pNzs8rLikqTS7hKmSEqOLKS4HI\nFjJ5M7SGMia1BxUya3gzejO3QhWklFQWpHIVsoQypVl4M3gzAhWwangzhzLa+Pn5ef0HAjDhzVCS\n1BkqwQAGH+zR6ZIkPQDfyO6fmQAAAA==\n'
p1059
sg20
g162
sg22
I167
ssg300
I1
sg413
g414
sg415
S'X'
sg416
F0.40000000000000002
sg417
S'Z'
sg292
I1
sg294
I1
sg170
I0
sg301
F1
sg418
I1
sg302
I01
sg419
S'Y'
sg420
I0
sg290
F0
sg421
F0.5
sg422
(dp1060
g19
S'H4sIAGg7El0C/2tgSs4rzS2o1EvOL0rVyy3NKclMLCpKrOSKL0pNzs8rLikqTS7hKmSEqOLKS4HI\nFjJ5M7SGMia1BxUya3gzejO3QhWklFQWpHIVsoQypVl4M3gzAhWwangzhzLa+Pn5ef0HAjDhzVCS\n1BkqYQwGj+3R6ZIkPQB1t6TsmQAAAA==\n'
p1061
sg20
g162
sg22
I168
ssg425
g426
sg427
(dp1062
g19
S'H4sIAGg7El0C/2tgSs4rzS2o1EvOL0rVyy3NKclMLCpKrOSKL0pNzs8rLikqTS7hKmSEqOLKS4HI\nFjJ5M7SGMia1BxUya3gzejO3QhWklFQWpHIVsoQypVl4M3gzAhWwangzhzLa+Pn5ef0HAjDhzVCS\n1BkqwQAGH+zR6ZIkPQDfyO6fmQAAAA==\n'
p1063
sg20
g162
sg22
I169
ssg165
I0
sg297
(dp1064
g19
S'H4sIAGg7El0C/2tgSs4rzS2o1EvOL0rVyy3NKclMLCpKrOSKL0pNzs8rLikqTS7hKmSEqOLKS4HI\nFjJ5M7SGMia1BxUya3gzejO3QhWklFQWpHIVsoQypVl4M3gzAhWwangzhzLa+Pn5ef0HAjDhzVCS\n1BkqwYADlCTpAQD67GqfmQAAAA==\n'
p1065
sg20
g162
sg22
I170
sssg20
g44
sg22
I162
sssg432
I1
sg433
(dp1066
g2
(lp1067
((S'CHasTraits'
S'traits.ctraits'
tI-1
tp1068
a((g5
g6
tI-1
tp1069
a((g8
g6
tI-1
tp1070
a((g116
g117
tI-1
tp1071
a((g119
g120
tI-1
tp1072
a((g122
g123
tI-1
tp1073
a((g442
g443
tI-1
tp1074
a((g445
g446
tI-1
tp1075
asg16
g445
sg17
(dp1076
g19
Nsg20
g36
sg22
I13
ssg20
g23
sg22
I171
sg24
g446
sg19
(dp1077
g19
(dp1078
g451
F1.7305686099283231
sg452
(dp1079
g19
S'H4sIAGg7El0C/2tgSs4rzS2o1EvOL0rVyy3NKclMLCpKrOSKL0pNzs8rLikqTS7hKmSEqOLKS4HI\nFjJ5M7SGMia1BxUya3gzejO3QhWklFQWpHIVsoQypVl4M3gzAhWwangzhzLa+Pn5ef0HAjDhzVCS\n1BkqMfG3T6BV0Pn9HzfuPvUy9+Z+Jo4v/um+b+xLkvQAGQ1oQ5kAAAA=\n'
p1080
sg20
g162
sg22
I173
ssg455
I0
sg456
I0
sg457
I0
sg458
F2
sg459
(dp1081
g19
S'H4sIAGg7El0C/2tgSs4rzS2o1EvOL0rVyy3NKclMLCpKrOSKL0pNzs8rLikqTS7hKmSEqOLKS4HI\nFjJ5M7SGMia1BxUya3gzejO3QhWklFQWpHIVsoQypVl4M3gzAhWwangzhzLa+Pn5ef0HAjDhzVCS\n1BkqwYAVfLAvSdIDAFBUFn+ZAAAA\n'
p1082
sg20
g162
sg22
I174
ssg462
F7.7635887508389025
sg463
(dp1083
g19
S'H4sIAGg7El0C/2tgSs4rzS2o1EvOL0rVyy3NKclMLCpKrOSKL0pNzs8rLikqTS7hKmSEqOLKS4HI\nFjJ5M7SGMia1BxUya3gzejO3QhWklFQWpHIVsoQypVl4M3gzAhWwangzhzLa+Pn5ef0HAjDhzVCS\n1BkqwQAGD/aj0yVJegCccoLmmQAAAA==\n'
p1084
sg20
g162
sg22
I176
ssg466
(dp1085
g19
S'H4sIAGg7El0C/2tgSs4rzS2o1EvOL0rVyy3NKclMLCpKrOSKL0pNzs8rLikqTS7hKmSEqOLKS4HI\nFjJ5M7SGMia1BxUya3gzejO1QhWklFQWpHIVsoQypVl4M3gzAhWwangzhzLa+Pn5ef0HAjDhzVCS\n1BkqMP8f4wm/36YOnwqyQk/us3UoSdIDAInm+L+RAAAA\n'
p1086
sg20
g162
sg22
I177
ssg469
(dp1087
g19
S'H4sIAGg7El0C/2tgSs4rzS2o1EvOL0rVyy3NKclMLCpKrOSKL0pNzs8rLikqTS7hKmSEqOLKS4HI\nFjJ5M7SGMia1BxUya3gzejO3QhWklFQWpHIVsoQypVl4M3gzAhWwangzhzLa+Pn5ef0HAjDhzVCS\n1BkqwQAECy4F2DOggZIkPQDZ57+tmQAAAA==\n'
p1088
sg20
g162
sg22
I175
ssg472
(dp1089
g19
S'H4sIAGg7El0C/2tgSs4rzS2o1EvOL0rVyy3NKclMLCpKrOSKL0pNzs8rLikqTS7hKmSEqOLKS4HI\nFjJ5M7SGMia1BxUya3gzejO1QhWklFQWpHIVsoQypVl4M3gzAhWwangzhzLa+Pn5ef0HAjDhzVCS\n1BkqwIAGSpL0ACtwOO6RAAAA\n'
p1090
sg20
g162
sg22
I178
ssg475
I0
sg476
F1
sg170
I0
sg297
(dp1091
g19
S'H4sIAGg7El0C/2tgSs4rzS2o1EvOL0rVyy3NKclMLCpKrOSKL0pNzs8rLikqTS7hKmSEqOLKS4HI\nFjJ5M7SGMia1BxUya3gzejO3QhWklFQWpHIVsoQypVl4M3gzAhWwangzhzLa+Pn5ef0HAjDhzVCS\n1BkqoXt1xzepQFkH97zk9/OiTB2ubM5MPmir7lCSpAcAKsEKJpkAAAA=\n'
p1092
sg20
g162
sg22
I181
ssg479
F30
sg480
(dp1093
g19
S'H4sIAGg7El0C/2tgSs4rzS2o1EvOL0rVyy3NKclMLCpKrOSKL0pNzs8rLikqTS7hKmSEqOLKS4HI\nFjJ5M7SGMia1BxUya3gzejO3QhWklFQWpHIVsoQypVl4M3gzAhWwangzhzLa+Pn5ef0HAjDhzVCS\n1BkqwQAGD+zR6P0lSXoAUF207ZkAAAA=\n'
p1094
sg20
g162
sg22
I179
ssg483
(dp1095
g19
S'H4sIAGg7El0C/2tgSs4rzS2o1EvOL0rVyy3NKclMLCpKrOSKL0pNzs8rLikqTS7hKmSEqOLKS4HI\nFjJ5M7SGMia1BxUya3gzejO3QhWklFQWpHIVsoQypVl4M3gzAhWwangzhzLa+Pn5ef0HAjDhzVCS\n1BkqwQAGD+yh9H4YXZKkBwCwMnONmQAAAA==\n'
p1096
sg20
g162
sg22
I180
ssg486
F0.059999999999999998
sg487
F25.391606763881903
sg488
I00
sg173
I0
sg489
I1
sg165
I0
sg490
I0
sg491
I0
ssg20
g44
sg22
I172
sssg492
(dp1097
g2
(lp1098
((S'CHasTraits'
S'traits.ctraits'
tI-1
tp1099
a((g5
g6
tI-1
tp1100
a((g8
g6
tI-1
tp1101
a((g116
g117
tI-1
tp1102
a((g119
g120
tI-1
tp1103
a((g122
g123
tI-1
tp1104
a((g501
g502
tI-1
tp1105
a((g504
g505
tI-1
tp1106
asg16
g504
sg17
(dp1107
g19
Nsg20
g36
sg22
I13
ssg20
g23
sg22
I182
sg24
g505
sg19
(dp1108
g19
(dp1109
g510
I0
sg511
I1
sg512
(dp1110
g19
S'H4sIAGg7El0C/2tgSs4rzS2o1EvOL0rVyy3NKclMLCpKrOSKL0pNzs8rLikqTS7hKmSEqOLKS4HI\nFjJ5M7SGMia1BxUya3gzejO1QhWklFQWpHIVsoQypVl4M3gzAhWwangzhzLa+Pn5ef0HAjDhzVCS\n1BkqwAAGH+xhdEmSHgBnOGdykQAAAA==\n'
p1111
sg20
g162
sg22
I184
ssg515
I1
sg516
(dp1112
g19
S'H4sIAGg7El0C/2tgSs4rzS2o1EvOL0rVyy3NKclMLCpKrOSKL0pNzs8rLikqTS7hKmSEqOLKS4HI\nFjJ5M7SGMia1BxUya3gzejO3QhWklFQWpHIVsoQypVl4M3gzAhWwangzhzLa+Pn5ef0HAjDhzVCS\n1BkqwYADlCTpAQD67GqfmQAAAA==\n'
p1113
sg20
g162
sg22
I185
ssg519
F0.001
sg520
I1
sg521
I0
sg522
(dp1114
g19
S'H4sIAGg7El0C/2tgSs4rzS2o1EvOL0rVyy3NKclMLCpKrOSKL0pNzs8rLikqTS7hKmSEqOLKS4HI\nFjJ5M7SGMia1BxUya3gzejO1QhWklFQWpHIVsoQypVl4M3gzAhWwangzhzLa+Pn5ef0HAjDhzVCS\n1Bkq4FSgJbzNkcGBAQw+2Jck6QEAMPX/YZEAAAA=\n'
p1115
sg20
g162
sg22
I186
ssg525
(dp1116
g19
S'H4sIAGg7El0C/2tgSs4rzS2o1EvOL0rVyy3NKclMLCpKrOSKL0pNzs8rLikqTS7hKmSEqOLKS4HI\nFjJ5M7SGMia1BxUya3gzejO3QhWklFQWpHIVsoQypVl4M3gzAhWwangzhzLa+Pn5ef0HAjDhzVCS\n1BkqwQAGH+zR6ZIkPQDfyO6fmQAAAA==\n'
p1117
sg20
g162
sg22
I187
ssg528
I1
sg529
I0
sg530
I0
sg531
I0
sg532
I00
sg533
(dp1118
g19
S'H4sIAGg7El0C/2tgSs4rzS2o1EvOL0rVyy3NKclMLCpKrOSKL0pNzs8rLikqTS7hKmSEqOLKS4HI\nFjJ5M7SGMia1BxUya3gzerO0QhWklFQWpHIVsoQypVl4M3gzAhWwangzhzLa+Pn5ef0HAjDhzVCS\n1BmqwEAAlCTpAQArcBtwoQAAAA==\n'
p1119
sg20
g162
sg22
I188
ssg536
I1
sg537
F10000
sg538
I4
sg170
I0
sg539
F0
sg540
(dp1120
g19
Nsg20
g36
sg22
I63
ssg543
I1
sg544
I00
sg370
I1
sg545
(dp1121
g19
Nsg20
g36
sg22
I64
ssg548
(dp1122
g19
S'H4sIAGg7El0C/2tgSs4rzS2o1EvOL0rVyy3NKclMLCpKrOSKL0pNzs8rLikqTS7hKmSEqOLKS4HI\nFjJ5M7SGMia1BxUya3gzerO0QhWklFQWpHIVsoQypVl4M3gzAhWwangzhzLa+Pn5ef0HAjDhzVCS\n1BmqwIAVfLCH0SVJegBnOETsoQAAAA==\n'
p1123
sg20
g162
sg22
I189
ssg551
I0
sg552
(dp1124
g19
S'H4sIAGg7El0C/2tgSs4rzS2o1EvOL0rVyy3NKclMLCpKrOSKL0pNzs8rLikqTS7hKmSEqOLKS4HI\nFjJ5M7SGMia1BxUya3gzejO3QhWklFQWpHIVsoQypVl4M3gzAhWwangzhzLa+Pn5ef0HAjDhzVCS\n1BkqwYADlCTpAQD67GqfmQAAAA==\n'
p1125
sg20
g162
sg22
I190
ssg555
I0
sg556
I1
sg557
I1
sg558
I0
sg173
I0
sg559
I0
sg560
I1
sg165
I0
sg561
I1
sg562
I0
sg377
I1
ssg20
g44
sg22
I183
sssg563
I00
sg564
(dp1126
g19
Nsg20
g36
sg22
I67
ssg567
Nsg568
I00
sg540
(dp1127
g19
Nsg20
g36
sg22
I63
ssg570
I00
sg571
I00
sg572
I00
sg573
I00
sg574
I95
sg575
I00
sg491
I00
sg576
(dp1128
g2
(lp1129
((S'CHasTraits'
S'traits.ctraits'
tI-1
tp1130
a((g5
g6
tI-1
tp1131
a((g581
g582
tI0
tp1132
asg16
g581
sg17
(dp1133
g19
Nsg20
g36
sg22
I1
ssg20
g23
sg22
I191
sg24
g582
sg19
(dp1134
g19
(dp1135
g587
g588
sg589
(dp1136
g19
(lp1137
(dp1138
g2
(lp1139
((S'CHasTraits'
S'traits.ctraits'
tI-1
tp1140
a((g5
g6
tI-1
tp1141
a((g596
g582
tI0
tp1142
asg16
g596
sg17
(dp1143
g19
Nsg20
g36
sg22
I1
ssg20
g23
sg22
I194
sg24
g582
sg19
(dp1144
g19
(dp1145
g601
I01
sg602
F45
sg603
(dp1146
g19
Nsg20
g36
sg22
I67
ssg605
(dp1147
g2
(lp1148
((S'CHasTraits'
S'traits.ctraits'
tI-1
tp1149
a((g5
g6
tI-1
tp1150
a((g8
g6
tI-1
tp1151
a((g116
g117
tI-1
tp1152
a((g119
g120
tI-1
tp1153
a((g122
g123
tI-1
tp1154
a((g614
g615
tI-1
tp1155
asg16
g614
sg17
(dp1156
g19
Nsg20
g36
sg22
I13
ssg20
g23
sg22
I196
sg24
g615
sg19
(dp1157
g19
(dp1158
g620
(dp1159
g19
Nsg20
g36
sg22
I67
ssg622
(dp1160
g19
S'H4sIAGg7El0C/2tgSs4rzS2o1EvOL0rVyy3NKclMLCpKrOSKL0pNzs8rLikqTS7hKmSEqOLKS4HI\nFjJ5M7SGMia1BxUya3gzejO3QhWklFQWpHIVsoQypVl4M3gzAhWwangzhzLa+Pn5ef0HAjDhzVCS\n1BkqwQAGH+wZ0EBJkh4Ak4CxA5kAAAA=\n'
p1161
sg20
g162
sg22
I200
ssg625
I1
sg626
F1
sg627
I1
sg628
(dp1162
g19
Nsg20
g36
sg22
I67
ssg630
I2
sg173
I0
sg631
(dp1163
g19
Nsg20
g36
sg22
I75
ssg634
I0
sg170
I0
sg635
F1
sg636
g637
sg165
I0
sg297
(dp1164
g19
S'H4sIAGg7El0C/2tgSs4rzS2o1EvOL0rVyy3NKclMLCpKrOSKL0pNzs8rLikqTS7hKmSEqOLKS4HI\nFjJ5M7SGMia1BxUya3gzejO3QhWklFQWpHIVsoQypVl4M3gzAhWwangzhzLa+Pn5ef0HAjDhzVCS\n1Bkq8Q/E/n/f/qx1fdq8Bc/sGcDggX1Jkh4AGCjHt5kAAAA=\n'
p1165
sg20
g162
sg22
I198
ssg640
I0
sg641
F30
sg469
(dp1166
g19
S'H4sIAGg7El0C/2tgSs4rzS2o1EvOL0rVyy3NKclMLCpKrOSKL0pNzs8rLikqTS7hKmSEqOLKS4HI\nFjJ5M7SGMia1BxUya3gzejO3QhWklFQWpHIVsoQypVl4M3gzAhWwangzhzLa+Pn5ef0HAjDhzVCS\n1BkqwYADlCTpAQD67GqfmQAAAA==\n'
p1167
sg20
g162
sg22
I199
sssg20
g44
sg22
I197
sssg635
F1
sg644
F45
sg645
(dp1168
g2
(lp1169
((S'CHasTraits'
S'traits.ctraits'
tI-1
tp1170
a((g5
g6
tI-1
tp1171
a((g650
g582
tI0
tp1172
asg16
g650
sg17
(dp1173
g19
Nsg20
g36
sg22
I1
ssg20
g23
sg22
I201
sg24
g582
sg19
(dp1174
g19
(dp1175
g655
F45
sg656
F45
sg657
(dp1176
g2
(lp1177
((S'CHasTraits'
S'traits.ctraits'
tI-1
tp1178
a((g5
g6
tI-1
tp1179
a((g8
g6
tI-1
tp1180
a((g116
g117
tI-1
tp1181
a((g119
g120
tI-1
tp1182
a((g122
g123
tI-1
tp1183
a((g269
g270
tI-1
tp1184
a((g272
g273
tI-1
tp1185
a((g275
g276
tI-1
tp1186
a((g669
g670
tI-1
tp1187
asg16
g669
sg17
(dp1188
g19
Nsg20
g36
sg22
I13
ssg20
g23
sg22
I203
sg24
g670
sg19
(dp1189
g19
(dp1190
g281
(dp1191
g19
S'H4sIAGg7El0C/2tgSs4rzS2o1EvOL0rVyy3NKclMLCpKrOSKL0pNzs8rLikqTS7hKmSEqOLKS4HI\nFjJ5M7SGMia1BxUya3gzejO3QhWklFQWpHIVsoQypVl4M3gzAhWwangzhzLa+Pn5ef0HAjDhzVCS\n1BkqwYADlCTpAQD67GqfmQAAAA==\n'
p1192
sg20
g162
sg22
I205
ssg284
(dp1193
g19
S'H4sIAGg7El0C/2tgSs4rzS2o1EvOL0rVyy3NKclMLCpKrOSKL0pNzs8rLikqTS7hKmSEqOLKS4HI\nFjJ5M7SGMia1BxUya3gzejO3QhWklFQWpHIVsoQypVl4M3gzAhWwangzhzLa+Pn5ef0HAjDhzVCS\n1BkqwQAGH+zR6ZIkPQDfyO6fmQAAAA==\n'
p1194
sg20
g162
sg22
I207
ssg287
(dp1195
g19
S'H4sIAGg7El0C/2tgSs4rzS2o1EvOL0rVyy3NKclMLCpKrOSKL0pNzs8rLikqTS7hKmSEqOLKS4HI\nFjJ5M7SGMia1BxUya3gzejO3QhWklFQWpHIVsoQypVl4M3gzAhWwangzhzLa+Pn5ef0HAjDhzVCS\n1Bkq8R8MbB0WTp1epRHn7ZCYldF6faHjgZIkPQBIslNUmQAAAA==\n'
p1196
sg20
g162
sg22
I206
ssg290
F0
sg170
I0
sg165
I0
sg291
I1
sg292
I1
sg293
I1
sg294
I1
sg295
I1
sg173
I0
sg296
I1
sg297
(dp1197
g19
S'H4sIAGg7El0C/2tgSs4rzS2o1EvOL0rVyy3NKclMLCpKrOSKL0pNzs8rLikqTS7hKmSEqOLKS4HI\nFjJ5M7SGMia1BxUya3gzejO3QhWklFQWpHIVsoQypVl4M3gzAhWwangzhzLa+Pn5ef0HAjDhzVCS\n1BkqwYADlCTpAQD67GqfmQAAAA==\n'
p1198
sg20
g162
sg22
I208
ssg300
I1
sg301
F1
sg302
I01
ssg20
g44
sg22
I204
ssssg20
g44
sg22
I202
ssssg20
g44
sg22
I195
ssa(dp1199
g2
(lp1200
((S'CHasTraits'
S'traits.ctraits'
tI-1
tp1201
a((g5
g6
tI-1
tp1202
a((g596
g582
tI0
tp1203
asg16
g596
sg17
(dp1204
g19
Nsg20
g36
sg22
I1
ssg20
g23
sg22
I209
sg24
g582
sg19
(dp1205
g19
(dp1206
g601
I01
sg602
F-30
sg603
(dp1207
g19
Nsg20
g36
sg22
I67
ssg605
(dp1208
g2
(lp1209
((S'CHasTraits'
S'traits.ctraits'
tI-1
tp1210
a((g5
g6
tI-1
tp1211
a((g8
g6
tI-1
tp1212
a((g116
g117
tI-1
tp1213
a((g119
g120
tI-1
tp1214
a((g122
g123
tI-1
tp1215
a((g614
g615
tI-1
tp1216
asg16
g614
sg17
(dp1217
g19
Nsg20
g36
sg22
I13
ssg20
g23
sg22
I211
sg24
g615
sg19
(dp1218
g19
(dp1219
g620
(dp1220
g19
Nsg20
g36
sg22
I67
ssg622
(dp1221
g19
S'H4sIAGg7El0C/2tgSs4rzS2o1EvOL0rVyy3NKclMLCpKrOSKL0pNzs8rLikqTS7hKmSEqOLKS4HI\nFjJ5M7SGMia1BxUya3gzejO3QhWklFQWpHIVsoQypVl4M3gzAhWwangzhzLa+Pn5ef0HAjDhzVCS\n1BkqwQAGH+wZ0EBJkh4Ak4CxA5kAAAA=\n'
p1222
sg20
g162
sg22
I215
ssg625
I1
sg626
F1
sg627
I1
sg628
(dp1223
g19
Nsg20
g36
sg22
I67
ssg630
I2
sg173
I0
sg631
(dp1224
g19
Nsg20
g36
sg22
I75
ssg634
I0
sg170
I0
sg635
F0.59999999999999998
sg636
g637
sg165
I0
sg297
(dp1225
g19
S'H4sIAGg7El0C/2tgSs4rzS2o1EvOL0rVyy3NKclMLCpKrOSKL0pNzs8rLikqTS7hKmSEqOLKS4HI\nFjJ5M7SGMia1BxUya3gzejO3QhWklFQWpHIVsoQypVl4M3gzAhWwangzhzLa+Pn5ef0HAjDhzVCS\n1BkqwQAGL/b/AYn9v79/rU/Ei6ptt+1LkvQAaH/w3pkAAAA=\n'
p1226
sg20
g162
sg22
I213
ssg640
I0
sg641
F30
sg469
(dp1227
g19
S'H4sIAGg7El0C/2tgSs4rzS2o1EvOL0rVyy3NKclMLCpKrOSKL0pNzs8rLikqTS7hKmSEqOLKS4HI\nFjJ5M7SGMia1BxUya3gzejO3QhWklFQWpHIVsoQypVl4M3gzAhWwangzhzLa+Pn5ef0HAjDhzVCS\n1BkqwYADlCTpAQD67GqfmQAAAA==\n'
p1228
sg20
g162
sg22
I214
sssg20
g44
sg22
I212
sssg635
F0.59999999999999998
sg644
F-60
sg645
(dp1229
g2
(lp1230
((S'CHasTraits'
S'traits.ctraits'
tI-1
tp1231
a((g5
g6
tI-1
tp1232
a((g650
g582
tI0
tp1233
asg16
g650
sg17
(dp1234
g19
Nsg20
g36
sg22
I1
ssg20
g23
sg22
I216
sg24
g582
sg19
(dp1235
g19
(dp1236
g655
F-30
sg656
F-60
sg657
(dp1237
g2
(lp1238
((S'CHasTraits'
S'traits.ctraits'
tI-1
tp1239
a((g5
g6
tI-1
tp1240
a((g8
g6
tI-1
tp1241
a((g116
g117
tI-1
tp1242
a((g119
g120
tI-1
tp1243
a((g122
g123
tI-1
tp1244
a((g269
g270
tI-1
tp1245
a((g272
g273
tI-1
tp1246
a((g275
g276
tI-1
tp1247
a((g669
g670
tI-1
tp1248
asg16
g669
sg17
(dp1249
g19
Nsg20
g36
sg22
I13
ssg20
g23
sg22
I218
sg24
g670
sg19
(dp1250
g19
(dp1251
g281
(dp1252
g19
S'H4sIAGg7El0C/2tgSs4rzS2o1EvOL0rVyy3NKclMLCpKrOSKL0pNzs8rLikqTS7hKmSEqOLKS4HI\nFjJ5M7SGMia1BxUya3gzejO3QhWklFQWpHIVsoQypVl4M3gzAhWwangzhzLa+Pn5ef0HAjDhzVCS\n1BkqwYADlCTpAQD67GqfmQAAAA==\n'
p1253
sg20
g162
sg22
I220
ssg284
(dp1254
g19
S'H4sIAGg7El0C/2tgSs4rzS2o1EvOL0rVyy3NKclMLCpKrOSKL0pNzs8rLikqTS7hKmSEqOLKS4HI\nFjJ5M7SGMia1BxUya3gzejO3QhWklFQWpHIVsoQypVl4M3gzAhWwangzhzLa+Pn5ef0HAjDhzVCS\n1BkqwQAGH+zR6ZIkPQDfyO6fmQAAAA==\n'
p1255
sg20
g162
sg22
I222
ssg287
(dp1256
g19
S'H4sIAGg7El0C/2tgSs4rzS2o1EvOL0rVyy3NKclMLCpKrOSKL0pNzs8rLikqTS7hKmSEqOLKS4HI\nFjJ5M7SGMia1BxUya3gzejO3QhWklFQWpHIVsoQypVl4M3gzAhWwangzhzLa+Pn5ef0HAjDhzVCS\n1BkqkciqU1XzReeAzEed9DXb/Q8ckl1muHyC1YGSJD0AQQ5XHpkAAAA=\n'
p1257
sg20
g162
sg22
I221
ssg290
F0
sg170
I0
sg165
I0
sg291
I1
sg292
I1
sg293
I1
sg294
I1
sg295
I1
sg173
I0
sg296
I1
sg297
(dp1258
g19
S'H4sIAGg7El0C/2tgSs4rzS2o1EvOL0rVyy3NKclMLCpKrOSKL0pNzs8rLikqTS7hKmSEqOLKS4HI\nFjJ5M7SGMia1BxUya3gzejO3QhWklFQWpHIVsoQypVl4M3gzAhWwangzhzLa+Pn5ef0HAjDhzVCS\n1BkqwYADlCTpAQD67GqfmQAAAA==\n'
p1259
sg20
g162
sg22
I223
ssg300
I1
sg301
F1
sg302
I01
ssg20
g44
sg22
I219
ssssg20
g44
sg22
I217
ssssg20
g44
sg22
I210
ssa(dp1260
g2
(lp1261
((S'CHasTraits'
S'traits.ctraits'
tI-1
tp1262
a((g5
g6
tI-1
tp1263
a((g596
g582
tI0
tp1264
asg16
g596
sg17
(dp1265
g19
Nsg20
g36
sg22
I1
ssg20
g23
sg22
I224
sg24
g582
sg19
(dp1266
g19
(dp1267
g601
I01
sg602
F-30
sg603
(dp1268
g19
Nsg20
g36
sg22
I67
ssg605
(dp1269
g2
(lp1270
((S'CHasTraits'
S'traits.ctraits'
tI-1
tp1271
a((g5
g6
tI-1
tp1272
a((g8
g6
tI-1
tp1273
a((g116
g117
tI-1
tp1274
a((g119
g120
tI-1
tp1275
a((g122
g123
tI-1
tp1276
a((g614
g615
tI-1
tp1277
asg16
g614
sg17
(dp1278
g19
Nsg20
g36
sg22
I13
ssg20
g23
sg22
I226
sg24
g615
sg19
(dp1279
g19
(dp1280
g620
(dp1281
g19
Nsg20
g36
sg22
I67
ssg622
(dp1282
g19
S'H4sIAGg7El0C/2tgSs4rzS2o1EvOL0rVyy3NKclMLCpKrOSKL0pNzs8rLikqTS7hKmSEqOLKS4HI\nFjJ5M7SGMia1BxUya3gzejO3QhWklFQWpHIVsoQypVl4M3gzAhWwangzhzLa+Pn5ef0HAjDhzVCS\n1BkqwQAGH+wZ0EBJkh4Ak4CxA5kAAAA=\n'
p1283
sg20
g162
sg22
I230
ssg625
I1
sg626
F1
sg627
I1
sg628
(dp1284
g19
Nsg20
g36
sg22
I67
ssg630
I2
sg173
I0
sg631
(dp1285
g19
Nsg20
g36
sg22
I75
ssg634
I0
sg170
I0
sg635
F0.5
sg636
g637
sg165
I0
sg297
(dp1286
g19
S'H4sIAGg7El0C/2tgSs4rzS2o1EvOL0rVyy3NKclMLCpKrOSKL0pNzs8rLikqTS7hKmSEqOLKS4HI\nFjJ5M7SGMia1BxUya3gzejO3QhWklFQWpHIVsoQypVl4M3gzAhWwangzhzLa+Pn5ef0HAjDhzVCS\n1BkqwQAGL+z/gMT+39+/1ifiRdW22/YlSXoARD8BtZkAAAA=\n'
p1287
sg20
g162
sg22
I228
ssg640
I0
sg641
F30
sg469
(dp1288
g19
S'H4sIAGg7El0C/2tgSs4rzS2o1EvOL0rVyy3NKclMLCpKrOSKL0pNzs8rLikqTS7hKmSEqOLKS4HI\nFjJ5M7SGMia1BxUya3gzejO3QhWklFQWpHIVsoQypVl4M3gzAhWwangzhzLa+Pn5ef0HAjDhzVCS\n1BkqwYADlCTpAQD67GqfmQAAAA==\n'
p1289
sg20
g162
sg22
I229
sssg20
g44
sg22
I227
sssg635
F0.5
sg644
F60
sg645
(dp1290
g2
(lp1291
((S'CHasTraits'
S'traits.ctraits'
tI-1
tp1292
a((g5
g6
tI-1
tp1293
a((g650
g582
tI0
tp1294
asg16
g650
sg17
(dp1295
g19
Nsg20
g36
sg22
I1
ssg20
g23
sg22
I231
sg24
g582
sg19
(dp1296
g19
(dp1297
g655
F-30
sg656
F60
sg657
(dp1298
g2
(lp1299
((S'CHasTraits'
S'traits.ctraits'
tI-1
tp1300
a((g5
g6
tI-1
tp1301
a((g8
g6
tI-1
tp1302
a((g116
g117
tI-1
tp1303
a((g119
g120
tI-1
tp1304
a((g122
g123
tI-1
tp1305
a((g269
g270
tI-1
tp1306
a((g272
g273
tI-1
tp1307
a((g275
g276
tI-1
tp1308
a((g669
g670
tI-1
tp1309
asg16
g669
sg17
(dp1310
g19
Nsg20
g36
sg22
I13
ssg20
g23
sg22
I233
sg24
g670
sg19
(dp1311
g19
(dp1312
g281
(dp1313
g19
S'H4sIAGg7El0C/2tgSs4rzS2o1EvOL0rVyy3NKclMLCpKrOSKL0pNzs8rLikqTS7hKmSEqOLKS4HI\nFjJ5M7SGMia1BxUya3gzejO3QhWklFQWpHIVsoQypVl4M3gzAhWwangzhzLa+Pn5ef0HAjDhzVCS\n1BkqwYADlCTpAQD67GqfmQAAAA==\n'
p1314
sg20
g162
sg22
I235
ssg284
(dp1315
g19
S'H4sIAGg7El0C/2tgSs4rzS2o1EvOL0rVyy3NKclMLCpKrOSKL0pNzs8rLikqTS7hKmSEqOLKS4HI\nFjJ5M7SGMia1BxUya3gzejO3QhWklFQWpHIVsoQypVl4M3gzAhWwangzhzLa+Pn5ef0HAjDhzVCS\n1BkqwQAGH+zR6ZIkPQDfyO6fmQAAAA==\n'
p1316
sg20
g162
sg22
I237
ssg287
(dp1317
g19
S'H4sIAGg7El0C/2tgSs4rzS2o1EvOL0rVyy3NKclMLCpKrOSKL0pNzs8rLikqTS7hKmSEqOLKS4HI\nFjJ5M7SGMia1BxUya3gzejO3QhWklFQWpHIVsoQypVl4M3gzAhWwangzhzLa+Pn5ef0HAjDhzVCS\n1BkqkciqU1XzReeAzEed9DXb/R0OyS4zXD7ByqEkSQ8AmtfJk5kAAAA=\n'
p1318
sg20
g162
sg22
I236
ssg290
F0
sg170
I0
sg165
I0
sg291
I1
sg292
I1
sg293
I1
sg294
I1
sg295
I1
sg173
I0
sg296
I1
sg297
(dp1319
g19
S'H4sIAGg7El0C/2tgSs4rzS2o1EvOL0rVyy3NKclMLCpKrOSKL0pNzs8rLikqTS7hKmSEqOLKS4HI\nFjJ5M7SGMia1BxUya3gzejO3QhWklFQWpHIVsoQypVl4M3gzAhWwangzhzLa+Pn5ef0HAjDhzVCS\n1BkqwYADlCTpAQD67GqfmQAAAA==\n'
p1320
sg20
g162
sg22
I238
ssg300
I1
sg301
F1
sg302
I01
ssg20
g44
sg22
I234
ssssg20
g44
sg22
I232
ssssg20
g44
sg22
I225
ssa(dp1321
g2
(lp1322
((S'CHasTraits'
S'traits.ctraits'
tI-1
tp1323
a((g5
g6
tI-1
tp1324
a((g596
g582
tI0
tp1325
asg16
g596
sg17
(dp1326
g19
Nsg20
g36
sg22
I1
ssg20
g23
sg22
I239
sg24
g582
sg19
(dp1327
g19
(dp1328
g601
I00
sg602
F0
sg603
(dp1329
g19
Nsg20
g36
sg22
I67
ssg605
(dp1330
g2
(lp1331
((S'CHasTraits'
S'traits.ctraits'
tI-1
tp1332
a((g5
g6
tI-1
tp1333
a((g8
g6
tI-1
tp1334
a((g116
g117
tI-1
tp1335
a((g119
g120
tI-1
tp1336
a((g122
g123
tI-1
tp1337
a((g614
g615
tI-1
tp1338
asg16
g614
sg17
(dp1339
g19
Nsg20
g36
sg22
I13
ssg20
g23
sg22
I241
sg24
g615
sg19
(dp1340
g19
(dp1341
g620
(dp1342
g19
Nsg20
g36
sg22
I67
ssg622
(dp1343
g19
S'H4sIAGg7El0C/2tgSs4rzS2o1EvOL0rVyy3NKclMLCpKrOSKL0pNzs8rLikqTS7hKmSEqOLKS4HI\nFjJ5M7SGMia1BxUya3gzejO3QhWklFQWpHIVsoQypVl4M3gzAhWwangzhzLa+Pn5ef0HAjDhzVCS\n1BkqwQAGH+wZ0EBJkh4Ak4CxA5kAAAA=\n'
p1344
sg20
g162
sg22
I245
ssg625
I0
sg626
F1
sg627
I0
sg628
(dp1345
g19
Nsg20
g36
sg22
I67
ssg630
I2
sg173
I0
sg631
(dp1346
g19
Nsg20
g36
sg22
I75
ssg634
I0
sg170
I0
sg635
F1
sg636
g637
sg165
I0
sg297
(dp1347
g19
S'H4sIAGg7El0C/2tgSs4rzS2o1EvOL0rVyy3NKclMLCpKrOSKL0pNzs8rLikqTS7hKmSEqOLKS4HI\nFjJ5M7SGMia1BxUya3gzejO3QhWklFQWpHIVsoQypVl4M3gzAhWwangzhzLa+Pn5ef0HAjDhzVCS\n1BkqwYAVfLAvSdIDAFBUFn+ZAAAA\n'
p1348
sg20
g162
sg22
I243
ssg640
I0
sg641
F30
sg469
(dp1349
g19
S'H4sIAGg7El0C/2tgSs4rzS2o1EvOL0rVyy3NKclMLCpKrOSKL0pNzs8rLikqTS7hKmSEqOLKS4HI\nFjJ5M7SGMia1BxUya3gzejO3QhWklFQWpHIVsoQypVl4M3gzAhWwangzhzLa+Pn5ef0HAjDhzVCS\n1BkqwYADlCTpAQD67GqfmQAAAA==\n'
p1350
sg20
g162
sg22
I244
sssg20
g44
sg22
I242
sssg635
F1
sg644
F0
sg645
(dp1351
g2
(lp1352
((S'CHasTraits'
S'traits.ctraits'
tI-1
tp1353
a((g5
g6
tI-1
tp1354
a((g650
g582
tI0
tp1355
asg16
g650
sg17
(dp1356
g19
Nsg20
g36
sg22
I1
ssg20
g23
sg22
I246
sg24
g582
sg19
(dp1357
g19
(dp1358
g655
F0
sg656
F0
sg657
(dp1359
g2
(lp1360
((S'CHasTraits'
S'traits.ctraits'
tI-1
tp1361
a((g5
g6
tI-1
tp1362
a((g8
g6
tI-1
tp1363
a((g116
g117
tI-1
tp1364
a((g119
g120
tI-1
tp1365
a((g122
g123
tI-1
tp1366
a((g269
g270
tI-1
tp1367
a((g272
g273
tI-1
tp1368
a((g275
g276
tI-1
tp1369
a((g669
g670
tI-1
tp1370
asg16
g669
sg17
(dp1371
g19
Nsg20
g36
sg22
I13
ssg20
g23
sg22
I248
sg24
g670
sg19
(dp1372
g19
(dp1373
g281
(dp1374
g19
S'H4sIAGg7El0C/2tgSs4rzS2o1EvOL0rVyy3NKclMLCpKrOSKL0pNzs8rLikqTS7hKmSEqOLKS4HI\nFjJ5M7SGMia1BxUya3gzejO3QhWklFQWpHIVsoQypVl4M3gzAhWwangzhzLa+Pn5ef0HAjDhzVCS\n1BkqwYADlCTpAQD67GqfmQAAAA==\n'
p1375
sg20
g162
sg22
I250
ssg284
(dp1376
g19
S'H4sIAGg7El0C/2tgSs4rzS2o1EvOL0rVyy3NKclMLCpKrOSKL0pNzs8rLikqTS7hKmSEqOLKS4HI\nFjJ5M7SGMia1BxUya3gzejO3QhWklFQWpHIVsoQypVl4M3gzAhWwangzhzLa+Pn5ef0HAjDhzVCS\n1BkqwQAGH+zR6ZIkPQDfyO6fmQAAAA==\n'
p1377
sg20
g162
sg22
I252
ssg287
(dp1378
g19
S'H4sIAGg7El0C/2tgSs4rzS2o1EvOL0rVyy3NKclMLCpKrOSKL0pNzs8rLikqTS7hKmSEqOLKS4HI\nFjJ5M7SGMia1BxUya3gzejO3QhWklFQWpHIVsoQypVl4M3gzAhWwangzhzLa+Pn5ef0HAjDhzVCS\n1BkqwYAKGmCMkiQ9ABqDrf+ZAAAA\n'
p1379
sg20
g162
sg22
I251
ssg290
F0
sg170
I0
sg165
I0
sg291
I1
sg292
I0
sg293
I1
sg294
I1
sg295
I1
sg173
I0
sg296
I0
sg297
(dp1380
g19
S'H4sIAGg7El0C/2tgSs4rzS2o1EvOL0rVyy3NKclMLCpKrOSKL0pNzs8rLikqTS7hKmSEqOLKS4HI\nFjJ5M7SGMia1BxUya3gzejO3QhWklFQWpHIVsoQypVl4M3gzAhWwangzhzLa+Pn5ef0HAjDhzVCS\n1BkqwYADlCTpAQD67GqfmQAAAA==\n'
p1381
sg20
g162
sg22
I253
ssg300
I1
sg301
F1
sg302
I01
ssg20
g44
sg22
I249
ssssg20
g44
sg22
I247
ssssg20
g44
sg22
I240
ssasg20
g866
sg22
I193
ssg867
I4
ssg20
g44
sg22
I192
sssg868
I1
ssg20
g44
sg22
I136
sssg869
S''
sg20
S' scene'
p1382
sg871
(dp1383
g19
(lp1384
(dp1385
g2
(lp1386
((S'CHasTraits'
S'traits.ctraits'
tI-1
tp1387
a((g5
g6
tI-1
tp1388
a((g61
g6
tI-1
tp1389
a((g63
g64
tI-1
tp1390
a((g66
g67
tI0
tp1391
a((S'PipelineBase'
p1392
S'mayavi.core.pipeline_base'
p1393
tI0
tp1394
a((S'Source'
p1395
S'mayavi.core.source'
p1396
tI0
tp1397
a((S'ParametricSurface'
p1398
S'mayavi.sources.parametric_surface'
p1399
tI0
tp1400
asg16
g1398
sg17
(dp1401
g19
Nsg20
g36
sg22
I1
ssg20
g23
sg22
I255
sg24
g1399
sg19
(dp1402
g19
(dp1403
S'function'
p1404
S'ellipsoid'
p1405
sS'_function_dict'
p1406
(dp1407
g19
(dp1408
S'conic_spiral'
p1409
(dp1410
g2
(lp1411
((S'CHasTraits'
S'traits.ctraits'
tI-1
tp1412
a((g5
g6
tI-1
tp1413
a((g8
g6
tI-1
tp1414
a((g116
g117
tI-1
tp1415
a((g119
g120
tI-1
tp1416
a((g122
g123
tI-1
tp1417
a((S'ParametricFunction'
p1418
S'tvtk.tvtk_classes.parametric_function'
p1419
tI-1
tp1420
a((S'ParametricConicSpiral'
p1421
S'tvtk.tvtk_classes.parametric_conic_spiral'
p1422
tI-1
tp1423
asg16
g1421
sg17
(dp1424
g19
Nsg20
g36
sg22
I13
ssg20
g23
sg22
I258
sg24
g1422
sg19
(dp1425
g19
(dp1426
S'join_u_'
p1427
I0
sS'join_w_'
p1428
I0
sS'derivatives_available'
p1429
I1
sS'twist_w'
p1430
I0
sS'twist_v'
p1431
I0
sS'twist_u'
p1432
I0
sS'derivatives_available_'
p1433
I1
sS'twist_v_'
p1434
I0
sS'minimum_v'
p1435
F0
sS'minimum_w'
p1436
F0
sS'maximum_v'
p1437
F6.2831853071795862
sS'maximum_w'
p1438
F1
sS'maximum_u'
p1439
F6.2831853071795862
sS'clockwise_ordering'
p1440
I1
sS'twist_u_'
p1441
I0
sS'clockwise_ordering_'
p1442
I1
sS'join_w'
p1443
I0
sS'join_v'
p1444
I0
sS'join_u'
p1445
I0
sg170
I0
sS'twist_w_'
p1446
I0
sS'a'
F0.20000000000000001
sS'c'
F0.10000000000000001
sS'b'
F1
sg173
I0
sS'n'
F2
sg165
I0
sS'join_v_'
p1447
I0
sS'minimum_u'
p1448
F0
ssg20
g44
sg22
I259
sssS'enneper'
p1449
(dp1450
g2
(lp1451
((S'CHasTraits'
S'traits.ctraits'
tI-1
tp1452
a((g5
g6
tI-1
tp1453
a((g8
g6
tI-1
tp1454
a((g116
g117
tI-1
tp1455
a((g119
g120
tI-1
tp1456
a((g122
g123
tI-1
tp1457
a((g1418
g1419
tI-1
tp1458
a((S'ParametricEnneper'
p1459
S'tvtk.tvtk_classes.parametric_enneper'
p1460
tI-1
tp1461
asg16
g1459
sg17
(dp1462
g19
Nsg20
g36
sg22
I13
ssg20
g23
sg22
I260
sg24
g1460
sg19
(dp1463
g19
(dp1464
g1427
I0
sg1428
I0
sg1429
I1
sg1430
I0
sg1431
I0
sg1432
I0
sg1433
I1
sg1434
I0
sg1435
F-2
sg1436
F0
sg1437
F2
sg1438
F1
sg1439
F2
sg1440
I1
sg1441
I0
sg1442
I1
sg1443
I0
sg1444
I0
sg1445
I0
sg170
I0
sg1446
I0
sg173
I0
sg165
I0
sg1447
I0
sg1448
F-2
ssg20
g44
sg22
I261
sssS'cap'
p1465
(dp1466
g2
(lp1467
((S'CHasTraits'
S'traits.ctraits'
tI-1
tp1468
a((g5
g6
tI-1
tp1469
a((g8
g6
tI-1
tp1470
a((g116
g117
tI-1
tp1471
a((g119
g120
tI-1
tp1472
a((g122
g123
tI-1
tp1473
a((g1418
g1419
tI-1
tp1474
a((S'ParametricCrossCap'
p1475
S'tvtk.tvtk_classes.parametric_cross_cap'
p1476
tI-1
tp1477
asg16
g1475
sg17
(dp1478
g19
Nsg20
g36
sg22
I13
ssg20
g23
sg22
I274
sg24
g1476
sg19
(dp1479
g19
(dp1480
g1427
I1
sg1428
I0
sg1429
I1
sg1430
I0
sg1431
I1
sg1432
I1
sg1433
I1
sg1434
I1
sg1435
F0
sg1436
F0
sg1437
F3.1415926535897931
sg1438
F1
sg1439
F3.1415926535897931
sg1440
I1
sg1441
I1
sg1442
I1
sg1443
I0
sg1444
I1
sg1445
I1
sg170
I0
sg1446
I0
sg173
I0
sg165
I0
sg1447
I1
sg1448
F0
ssg20
g44
sg22
I275
sssS'random_hills'
p1481
(dp1482
g2
(lp1483
((S'CHasTraits'
S'traits.ctraits'
tI-1
tp1484
a((g5
g6
tI-1
tp1485
a((g8
g6
tI-1
tp1486
a((g116
g117
tI-1
tp1487
a((g119
g120
tI-1
tp1488
a((g122
g123
tI-1
tp1489
a((g1418
g1419
tI-1
tp1490
a((S'ParametricRandomHills'
p1491
S'tvtk.tvtk_classes.parametric_random_hills'
p1492
tI-1
tp1493
asg16
g1491
sg17
(dp1494
g19
Nsg20
g36
sg22
I13
ssg20
g23
sg22
I264
sg24
g1492
sg19
(dp1495
g19
(dp1496
g1427
I0
sS'number_of_hills'
p1497
I30
sg1435
F-10
sg1428
I0
sg1429
I0
sS'allow_random_generation'
p1498
I1
sg1430
I0
sg1431
I0
sg1432
I0
sg1433
I0
sg1434
I0
sS'hill_y_variance'
p1499
F2.5
sg1436
F0
sg1437
F10
sg1438
F1
sg1442
I1
sg1440
I1
sS'y_variance_scale_factor'
p1500
F0.33333333333333331
sg1441
I0
sS'hill_x_variance'
p1501
F2.5
sg1439
F10
sS'random_seed'
p1502
I1
sg1443
I0
sg1444
I0
sg1445
I0
sg170
I0
sg1446
I0
sS'amplitude_scale_factor'
p1503
F0.33333333333333331
sS'x_variance_scale_factor'
p1504
F0.33333333333333331
sS'allow_random_generation_'
p1505
I1
sS'hill_amplitude'
p1506
F2
sg173
I0
sg165
I0
sg1447
I0
sg1448
F-10
ssg20
g44
sg22
I265
sssS'klein'
p1507
(dp1508
g2
(lp1509
((S'CHasTraits'
S'traits.ctraits'
tI-1
tp1510
a((g5
g6
tI-1
tp1511
a((g8
g6
tI-1
tp1512
a((g116
g117
tI-1
tp1513
a((g119
g120
tI-1
tp1514
a((g122
g123
tI-1
tp1515
a((g1418
g1419
tI-1
tp1516
a((S'ParametricKlein'
p1517
S'tvtk.tvtk_classes.parametric_klein'
p1518
tI-1
tp1519
asg16
g1517
sg17
(dp1520
g19
Nsg20
g36
sg22
I13
ssg20
g23
sg22
I266
sg24
g1518
sg19
(dp1521
g19
(dp1522
g1427
I0
sg1428
I0
sg1429
I1
sg1430
I0
sg1431
I0
sg1432
I0
sg1433
I1
sg1434
I0
sg1435
F0
sg1436
F0
sg1437
F6.2831853071795862
sg1438
F1
sg1439
F3.1415926535897931
sg1440
I1
sg1441
I0
sg1442
I1
sg1443
I0
sg1444
I1
sg1445
I0
sg170
I0
sg1446
I0
sg173
I0
sg165
I0
sg1447
I1
sg1448
F0
ssg20
g44
sg22
I267
sssS'ellipsoid'
p1523
(dp1524
g2
(lp1525
((S'CHasTraits'
S'traits.ctraits'
tI-1
tp1526
a((g5
g6
tI-1
tp1527
a((g8
g6
tI-1
tp1528
a((g116
g117
tI-1
tp1529
a((g119
g120
tI-1
tp1530
a((g122
g123
tI-1
tp1531
a((g1418
g1419
tI-1
tp1532
a((S'ParametricEllipsoid'
p1533
S'tvtk.tvtk_classes.parametric_ellipsoid'
p1534
tI-1
tp1535
asg16
g1533
sg17
(dp1536
g19
Nsg20
g36
sg22
I13
ssg20
g23
sg22
I268
sg24
g1534
sg19
(dp1537
g19
(dp1538
g1427
I1
sg1428
I0
sS'x_radius'
p1539
F1
sg1429
I1
sS'y_radius'
p1540
F1
sg1430
I0
sg1431
I0
sg1432
I0
sg1433
I1
sg1434
I0
sg1435
F0
sg1436
F0
sg1437
F3.1415926535897931
sg1438
F1
sg1439
F6.2831853071795862
sg1440
I1
sg1441
I0
sS'z_radius'
p1541
F1
sg1442
I1
sg1443
I0
sg1444
I0
sg1445
I1
sg170
I0
sg1446
I0
sg173
I0
sg165
I0
sg1447
I0
sg1448
F0
ssg20
g44
sg22
I269
sssS'boy'
p1542
(dp1543
g2
(lp1544
((S'CHasTraits'
S'traits.ctraits'
tI-1
tp1545
a((g5
g6
tI-1
tp1546
a((g8
g6
tI-1
tp1547
a((g116
g117
tI-1
tp1548
a((g119
g120
tI-1
tp1549
a((g122
g123
tI-1
tp1550
a((g1418
g1419
tI-1
tp1551
a((S'ParametricBoy'
p1552
S'tvtk.tvtk_classes.parametric_boy'
p1553
tI-1
tp1554
asg16
g1552
sg17
(dp1555
g19
Nsg20
g36
sg22
I13
ssg20
g23
sg22
I262
sg24
g1553
sg19
(dp1556
g19
(dp1557
g1427
I1
sg1428
I0
sg1429
I1
sg1430
I0
sg1431
I1
sg1432
I1
sg1433
I1
sg1434
I1
sg1435
F0
sg1436
F0
sg1437
F3.1415926535897931
sg1438
F1
sg1442
I1
sg1440
I1
sg1441
I1
sg1439
F3.1415926535897931
sg1443
I0
sg1444
I1
sg1445
I1
sg170
I0
sg1446
I0
sS'z_scale'
p1558
F0.125
sg173
I0
sg165
I0
sg1447
I1
sg1448
F0
ssg20
g44
sg22
I263
sssS'torus'
p1559
(dp1560
g2
(lp1561
((S'CHasTraits'
S'traits.ctraits'
tI-1
tp1562
a((g5
g6
tI-1
tp1563
a((g8
g6
tI-1
tp1564
a((g116
g117
tI-1
tp1565
a((g119
g120
tI-1
tp1566
a((g122
g123
tI-1
tp1567
a((g1418
g1419
tI-1
tp1568
a((S'ParametricTorus'
p1569
S'tvtk.tvtk_classes.parametric_torus'
p1570
tI-1
tp1571
asg16
g1569
sg17
(dp1572
g19
Nsg20
g36
sg22
I13
ssg20
g23
sg22
I272
sg24
g1570
sg19
(dp1573
g19
(dp1574
g1427
I1
sg1428
I0
sg1429
I1
sg1430
I0
sg1431
I0
sg1432
I0
sg1433
I1
sg1434
I0
sg1435
F0
sg1436
F0
sS'cross_section_radius'
p1575
F0.5
sg1437
F6.2831853071795862
sg1438
F1
sg1442
I1
sg1440
I1
sg1441
I0
sg1439
F6.2831853071795862
sg1443
I0
sg1444
I1
sg1445
I1
sg170
I0
sg1446
I0
sS'ring_radius'
p1576
F1
sg173
I0
sg165
I0
sg1447
I1
sg1448
F0
ssg20
g44
sg22
I273
sssS'figure8klein'
p1577
(dp1578
g2
(lp1579
((S'CHasTraits'
S'traits.ctraits'
tI-1
tp1580
a((g5
g6
tI-1
tp1581
a((g8
g6
tI-1
tp1582
a((g116
g117
tI-1
tp1583
a((g119
g120
tI-1
tp1584
a((g122
g123
tI-1
tp1585
a((g1418
g1419
tI-1
tp1586
a((S'ParametricFigure8Klein'
p1587
S'tvtk.tvtk_classes.parametric_figure8_klein'
p1588
tI-1
tp1589
asg16
g1587
sg17
(dp1590
g19
Nsg20
g36
sg22
I13
ssg20
g23
sg22
I270
sg24
g1588
sg19
(dp1591
g19
(dp1592
g1427
I1
sg1428
I0
sg1429
I1
sg1430
I0
sg1431
I0
sg1432
I1
sg1433
I1
sS'radius'
p1593
F1
sg1434
I0
sg1435
F-3.1415926535897931
sg1436
F0
sg1437
F3.1415926535897931
sg1438
F1
sg1442
I1
sg1440
I1
sg1441
I1
sg1439
F3.1415926535897931
sg1443
I0
sg1444
I1
sg1445
I1
sg170
I0
sg1446
I0
sg173
I0
sg165
I0
sg1447
I1
sg1448
F-3.1415926535897931
ssg20
g44
sg22
I271
sssS'super_toroid'
p1594
(dp1595
g2
(lp1596
((S'CHasTraits'
S'traits.ctraits'
tI-1
tp1597
a((g5
g6
tI-1
tp1598
a((g8
g6
tI-1
tp1599
a((g116
g117
tI-1
tp1600
a((g119
g120
tI-1
tp1601
a((g122
g123
tI-1
tp1602
a((g1418
g1419
tI-1
tp1603
a((S'ParametricSuperToroid'
p1604
S'tvtk.tvtk_classes.parametric_super_toroid'
p1605
tI-1
tp1606
asg16
g1604
sg17
(dp1607
g19
Nsg20
g36
sg22
I13
ssg20
g23
sg22
I276
sg24
g1605
sg19
(dp1608
g19
(dp1609
g1427
I1
sg1428
I0
sg1539
F1
sg1429
I0
sg1540
F1
sg1430
I0
sg1431
I0
sg1432
I0
sg1433
I0
sg1448
F0
sg1435
F0
sg1436
F0
sg1575
F0.5
sg1437
F6.2831853071795862
sg1438
F1
sg1442
I1
sg1440
I1
sg1441
I0
sg1541
F1
sg1439
F6.2831853071795862
sg1443
I0
sg1444
I1
sg1445
I1
sg170
I0
sg1446
I0
sg1576
F1
sS'n1'
p1610
F1
sg173
I0
sg165
I0
sg1447
I1
sS'n2'
p1611
F1
sg1434
I0
ssg20
g44
sg22
I277
sssS'dini'
p1612
(dp1613
g2
(lp1614
((S'CHasTraits'
S'traits.ctraits'
tI-1
tp1615
a((g5
g6
tI-1
tp1616
a((g8
g6
tI-1
tp1617
a((g116
g117
tI-1
tp1618
a((g119
g120
tI-1
tp1619
a((g122
g123
tI-1
tp1620
a((g1418
g1419
tI-1
tp1621
a((S'ParametricDini'
p1622
S'tvtk.tvtk_classes.parametric_dini'
p1623
tI-1
tp1624
asg16
g1622
sg17
(dp1625
g19
Nsg20
g36
sg22
I13
ssg20
g23
sg22
I278
sg24
g1623
sg19
(dp1626
g19
(dp1627
g1427
I0
sg1428
I0
sg1429
I1
sg1430
I0
sg1431
I0
sg1432
I0
sg1433
I1
sg1434
I0
sg1435
F0.001
sg1436
F0
sg1437
F2
sg1438
F1
sg1442
I1
sg1440
I1
sg1441
I0
sg1439
F12.566370614359172
sg1443
I0
sg1444
I0
sg1445
I0
sg170
I0
sg1446
I0
sS'a'
F1
sS'b'
F0.20000000000000001
sg173
I0
sg165
I0
sg1447
I0
sg1448
F0
ssg20
g44
sg22
I279
sssS'roman'
p1628
(dp1629
g2
(lp1630
((S'CHasTraits'
S'traits.ctraits'
tI-1
tp1631
a((g5
g6
tI-1
tp1632
a((g8
g6
tI-1
tp1633
a((g116
g117
tI-1
tp1634
a((g119
g120
tI-1
tp1635
a((g122
g123
tI-1
tp1636
a((g1418
g1419
tI-1
tp1637
a((S'ParametricRoman'
p1638
S'tvtk.tvtk_classes.parametric_roman'
p1639
tI-1
tp1640
asg16
g1638
sg17
(dp1641
g19
Nsg20
g36
sg22
I13
ssg20
g23
sg22
I280
sg24
g1639
sg19
(dp1642
g19
(dp1643
g1427
I1
sg1428
I0
sg1429
I1
sg1430
I0
sg1431
I0
sg1432
I1
sg1433
I1
sg1593
F1
sg1434
I0
sg1435
F0
sg1436
F0
sg1437
F3.1415926535897931
sg1438
F1
sg1442
I1
sg1440
I1
sg1441
I1
sg1439
F3.1415926535897931
sg1443
I0
sg1444
I1
sg1445
I1
sg170
I0
sg1446
I0
sg173
I0
sg165
I0
sg1447
I1
sg1448
F0
ssg20
g44
sg22
I281
sssS'mobius'
p1644
(dp1645
g2
(lp1646
((S'CHasTraits'
S'traits.ctraits'
tI-1
tp1647
a((g5
g6
tI-1
tp1648
a((g8
g6
tI-1
tp1649
a((g116
g117
tI-1
tp1650
a((g119
g120
tI-1
tp1651
a((g122
g123
tI-1
tp1652
a((g1418
g1419
tI-1
tp1653
a((S'ParametricMobius'
p1654
S'tvtk.tvtk_classes.parametric_mobius'
p1655
tI-1
tp1656
asg16
g1654
sg17
(dp1657
g19
Nsg20
g36
sg22
I13
ssg20
g23
sg22
I282
sg24
g1655
sg19
(dp1658
g19
(dp1659
g1427
I1
sg1428
I0
sg1429
I1
sg1430
I0
sg1431
I0
sg1432
I1
sg1433
I1
sg1593
F1
sg1434
I0
sg1435
F-1
sg1436
F0
sg1437
F1
sg1438
F1
sg1442
I1
sg1440
I1
sg1441
I1
sg1439
F6.2831853071795862
sg1443
I0
sg1444
I0
sg1445
I1
sg170
I0
sg1446
I0
sg173
I0
sg165
I0
sg1447
I0
sg1448
F0
ssg20
g44
sg22
I283
sssS'super_ellipsoid'
p1660
(dp1661
g2
(lp1662
((S'CHasTraits'
S'traits.ctraits'
tI-1
tp1663
a((g5
g6
tI-1
tp1664
a((g8
g6
tI-1
tp1665
a((g116
g117
tI-1
tp1666
a((g119
g120
tI-1
tp1667
a((g122
g123
tI-1
tp1668
a((g1418
g1419
tI-1
tp1669
a((S'ParametricSuperEllipsoid'
p1670
S'tvtk.tvtk_classes.parametric_super_ellipsoid'
p1671
tI-1
tp1672
asg16
g1670
sg17
(dp1673
g19
Nsg20
g36
sg22
I13
ssg20
g23
sg22
I284
sg24
g1671
sg19
(dp1674
g19
(dp1675
g1427
I1
sg1428
I0
sg1539
F1
sg1429
I0
sg1540
F1
sg1430
I0
sg1431
I0
sg1432
I0
sg1433
I0
sg1448
F0
sg1435
F0
sg1436
F0
sg1437
F3.1415926535897931
sg1438
F1
sg1442
I1
sg1440
I1
sg1441
I0
sg1541
F1
sg1439
F6.2831853071795862
sg1443
I0
sg1444
I0
sg1445
I1
sg170
I0
sg1446
I0
sg1610
F1
sg173
I0
sg165
I0
sg1447
I0
sg1611
F1
sg1434
I0
ssg20
g44
sg22
I285
sssS'spline'
p1676
(dp1677
g2
(lp1678
((S'CHasTraits'
S'traits.ctraits'
tI-1
tp1679
a((g5
g6
tI-1
tp1680
a((g8
g6
tI-1
tp1681
a((g116
g117
tI-1
tp1682
a((g119
g120
tI-1
tp1683
a((g122
g123
tI-1
tp1684
a((g1418
g1419
tI-1
tp1685
a((S'ParametricSpline'
p1686
S'tvtk.tvtk_classes.parametric_spline'
p1687
tI-1
tp1688
asg16
g1686
sg17
(dp1689
g19
Nsg20
g36
sg22
I13
ssg20
g23
sg22
I286
sg24
g1687
sg19
(dp1690
g19
(dp1691
g1427
I0
sg1428
I0
sS'left_value'
p1692
F0
sg1430
I0
sg1431
I0
sg1432
I0
sg1433
I1
sg1434
I0
sg1435
F0
sg1436
F0
sg1437
F1
sg1438
F1
sg1442
I1
sg1440
I1
sg1441
I0
sS'left_constraint'
p1693
I1
sS'parameterize_by_length_'
p1694
I1
sS'closed'
p1695
I0
sS'right_value'
p1696
F0
sg1429
I1
sS'closed_'
p1697
I0
sg1443
I0
sg1444
I0
sg1445
I0
sg170
I0
sg1446
I0
sS'right_constraint'
p1698
I1
sS'parameterize_by_length'
p1699
I1
sg1439
F1
sg173
I0
sg165
I0
sg1447
I0
sg1448
F0
ssg20
g44
sg22
I287
ssssg20
g44
sg22
I257
ssg27
S'ParametricSurface'
p1700
sg605
(dp1701
g2
(lp1702
((S'CHasTraits'
S'traits.ctraits'
tI-1
tp1703
a((g5
g6
tI-1
tp1704
a((g8
g6
tI-1
tp1705
a((g116
g117
tI-1
tp1706
a((g119
g120
tI-1
tp1707
a((g122
g123
tI-1
tp1708
a((g125
g126
tI-1
tp1709
a((g313
g314
tI-1
tp1710
a((S'ParametricFunctionSource'
p1711
S'tvtk.tvtk_classes.parametric_function_source'
p1712
tI-1
tp1713
asg16
g1711
sg17
(dp1714
g19
Nsg20
g36
sg22
I13
ssg20
g23
sg22
I398
sg24
g1712
sg19
(dp1715
g19
(dp1716
S'generate_normals'
p1717
I1
sg171
I0
sS'generate_texture_coordinates_'
p1718
I0
sS'w_resolution'
p1719
I50
sg146
g487
sS'v_resolution'
p1720
I50
sg163
NsS'generate_texture_coordinates'
p1721
I0
sg173
I0
sg170
I0
sg156
I0
sS'scalar_mode_'
p1722
I12
sg157
I0
sg179
I0
sg158
F1
sS'u_resolution'
p1723
I50
sS'output_points_precision'
p1724
I0
sg165
I0
sS'generate_normals_'
p1725
I1
ssg20
g44
sg22
I399
sssS'output_info'
p1726
(dp1727
g2
(lp1728
((S'CHasTraits'
S'traits.ctraits'
tI-1
tp1729
a((g5
g6
tI-1
tp1730
a((S'PipelineInfo'
p1731
S'mayavi.core.pipeline_info'
p1732
tI-1
tp1733
asg16
g1731
sg17
(dp1734
g19
Nsg20
g36
sg22
I1
ssg20
g23
sg22
I393
sg24
g1732
sg19
(dp1735
g19
(dp1736
S'attribute_types'
p1737
(dp1738
g19
(lp1739
S'any'
p1740
asg20
g866
sg22
I395
ssS'datasets'
p1741
(dp1742
g19
(lp1743
S'poly_data'
p1744
asg20
g866
sg22
I396
ssS'attributes'
p1745
(dp1746
g19
(lp1747
g1740
asg20
g866
sg22
I397
sssg20
g44
sg22
I394
sssS'visible'
p1748
I01
sg869
S''
sS'recorder'
p1749
Nsg20
S' data source'
p1750
sg871
(dp1751
g19
(lp1752
(dp1753
g2
(lp1754
((S'CHasTraits'
S'traits.ctraits'
tI-1
tp1755
a((g5
g6
tI-1
tp1756
a((g61
g6
tI-1
tp1757
a((g63
g64
tI-1
tp1758
a((g66
g67
tI0
tp1759
a((S'ModuleManager'
p1760
S'mayavi.core.module_manager'
p1761
tI0
tp1762
asg16
g1760
sg17
(dp1763
g19
Nsg20
g36
sg22
I1
ssg20
g23
sg22
I289
sg24
g1761
sg19
(dp1764
g19
(dp1765
g27
S'Colors and legends'
p1766
sS'lut_data_mode'
p1767
S'auto'
p1768
sS'vector_lut_manager'
p1769
(dp1770
g2
(lp1771
((S'CHasTraits'
S'traits.ctraits'
tI-1
tp1772
a((g5
g6
tI-1
tp1773
a((g61
g6
tI-1
tp1774
a((g63
g64
tI-1
tp1775
a((g66
g67
tI0
tp1776
a((S'LUTManager'
p1777
S'mayavi.core.lut_manager'
p1778
tI0
tp1779
asg16
g1777
sg17
(dp1780
g19
Nsg20
g36
sg22
I1
ssg20
g23
sg22
I291
sg24
g1778
sg19
(dp1781
g19
(dp1782
S'_label_text_property'
p1783
(dp1784
g2
(lp1785
((S'CHasTraits'
S'traits.ctraits'
tI-1
tp1786
a((g5
g6
tI-1
tp1787
a((g8
g6
tI-1
tp1788
a((g116
g117
tI-1
tp1789
a((g119
g120
tI-1
tp1790
a((g122
g123
tI-1
tp1791
a((S'TextProperty'
p1792
S'tvtk.tvtk_classes.text_property'
p1793
tI-1
tp1794
asg16
g1792
sg17
(dp1795
g19
Nsg20
g36
sg22
I13
ssg20
g23
sg22
I293
sg24
g1793
sg19
(dp1796
g19
(dp1797
g287
F0
sS'line_spacing'
p1798
F1.1000000000000001
sS'font_file'
p1799
NsS'background_color'
p1800
(dp1801
g19
Nsg20
g36
sg22
I75
ssg603
(dp1802
g19
Nsg20
g36
sg22
I67
ssS'italic'
p1803
I1
sS'font_family'
p1804
S'arial'
p1805
sS'opacity'
p1806
F1
sS'justification'
p1807
S'left'
p1808
sS'bold'
p1809
I1
sS'line_offset'
p1810
F0
sS'italic_'
p1811
I1
sS'shadow_'
p1812
I0
sg170
I0
sS'shadow_offset'
p1813
(dp1814
g19
S'H4sIAGg7El0C/2tgSs4rzS2o1EvOL0rVyy3NKclMLCpKrOSKL0pNzs8rLikqTS7hKmSEqOLKS4HI\nFjJ5M7SGMia1BxUya3gzejO1QhWklFQWpHIVsoQyZVp4M3gzAhWwangzhzLa+Pn5ef0HAjDhzVCS\n1BkqwMgAAf+hoCRJDwBQGVfqkQAAAA==\n'
p1815
sg20
g162
sg22
I295
ssS'bold_'
p1816
I1
sS'shadow'
p1817
I0
sS'font_size'
p1818
I12
sS'vertical_justification'
p1819
S'bottom'
p1820
sg173
I0
sg165
I0
sS'background_opacity'
p1821
F0
ssg20
g44
sg22
I294
sssS'file_name'
p1822
S''
sS'data_name'
p1823
S'No vectors'
p1824
sg1748
I01
sS'default_data_range'
p1825
(dp1826
g19
S'H4sIAGg7El0C/2tgSs4rzS2o1EvOL0rVyy3NKclMLCpKrOSKL0pNzs8rLikqTS7hKmSEqOLKS4HI\nFjJ5M7SGMia1BxUya3gzejO1QhWklFQWpHIVsoQypVl4M3gzAhWwangzhzLa+Pn5ef0HAjDhzVCS\n1BkqwIACPtiXJOkBAIHIRA6RAAAA\n'
p1827
sg20
g162
sg22
I296
ssS'lut'
p1828
(dp1829
g2
(lp1830
((S'CHasTraits'
S'traits.ctraits'
tI-1
tp1831
a((g5
g6
tI-1
tp1832
a((g8
g6
tI-1
tp1833
a((g116
g117
tI-1
tp1834
a((g119
g120
tI-1
tp1835
a((g122
g123
tI-1
tp1836
a((S'ScalarsToColors'
p1837
S'tvtk.tvtk_classes.scalars_to_colors'
p1838
tI-1
tp1839
a((S'LookupTable'
p1840
S'tvtk.tvtk_classes.lookup_table'
p1841
tI-1
tp1842
asg16
g1840
sg17
(dp1843
g19
Nsg20
g36
sg22
I13
ssg20
g23
sg22
I297
sg24
g1841
sg19
(dp1844
g19
(dp1845
S'below_range_color'
p1846
(dp1847
g19
S'H4sIAGg7El0C/2tgSs4rzS2o1EvOL0rVyy3NKclMLCpKrOSKL0pNzs8rLikqTS7hKmSEqOLKS4HI\nFjJ5M7SGMia1BxUya3gzerO0QhWklFQWpHIVsoQypVl4M3gzAhWwangzhzLa+Pn5ef0HAjDhzVCS\n1BmqwIAXfLAvSdIDAIHIZ5ChAAAA\n'
p1848
sg20
g162
sg22
I299
ssS'use_above_range_color_'
p1849
I0
sS'indexed_lookup_'
p1850
I0
sS'nan_color'
p1851
(dp1852
g19
S'H4sIAGg7El0C/2tgSs4rzS2o1EvOL0rVyy3NKclMLCpKrOSKL0pNzs8rLikqTS7hKmSEqOLKS4HI\nFjJ5M7SGMia1BxUya3gzerO0QhWklFQWpHIVsoQypVl4M3gzAhWwangzhzLa+Pn5ef0HAjDhzVCS\n1BmqwAAGD+wZsIIP9iVJegB4/hL5oQAAAA==\n'
p1853
sg20
g162
sg22
I301
ssS'above_range_color'
p1854
(dp1855
g19
S'H4sIAGg7El0C/2tgSs4rzS2o1EvOL0rVyy3NKclMLCpKrOSKL0pNzs8rLikqTS7hKmSEqOLKS4HI\nFjJ5M7SGMia1BxUya3gzerO0QhWklFQWpHIVsoQypVl4M3gzAhWwangzhzLa+Pn5ef0HAjDhzVCS\n1BmqwAAGH+xx0SVJegDy7yKfoQAAAA==\n'
p1856
sg20
g162
sg22
I302
ssS'table_range'
p1857
(dp1858
g19
S'H4sIAGg7El0C/2tgSs4rzS2o1EvOL0rVyy3NKclMLCpKrOSKL0pNzs8rLikqTS7hKmSEqOLKS4HI\nFjJ5M7SGMia1BxUya3gzejO1QhWklFQWpHIVsoQypVl4M3gzAhWwangzhzLa+Pn5ef0HAjDhzVCS\n1BkqwIACPtiXJOkBAIHIRA6RAAAA\n'
p1859
sg20
g162
sg22
I303
ssS'vector_component'
p1860
I0
sg284
S'linear'
p1861
sS'saturation_range'
p1862
(dp1863
g19
S'H4sIAGg7El0C/2tgSs4rzS2o1EvOL0rVyy3NKclMLCpKrOSKL0pNzs8rLikqTS7hKmSEqOLKS4HI\nFjJ5M7SGMia1BxUya3gzejO1QhWklFQWpHIVsoQypVl4M3gzAhWwangzhzLa+Pn5ef0HAjDhzVCS\n1BkqwAAGH+xhdEmSHgBnOGdykQAAAA==\n'
p1864
sg20
g162
sg22
I305
ssS'use_below_range_color_'
p1865
I0
sS'number_of_colors'
p1866
L256L
sS'value_range'
p1867
(dp1868
g19
S'H4sIAGg7El0C/2tgSs4rzS2o1EvOL0rVyy3NKclMLCpKrOSKL0pNzs8rLikqTS7hKmSEqOLKS4HI\nFjJ5M7SGMia1BxUya3gzejO1QhWklFQWpHIVsoQypVl4M3gzAhWwangzhzLa+Pn5ef0HAjDhzVCS\n1BkqwAAGH+xhdEmSHgBnOGdykQAAAA==\n'
p1869
sg20
g162
sg22
I307
ssS'vector_mode'
p1870
S'component'
p1871
sg170
I0
sS'indexed_lookup'
p1872
I0
sS'hue_range'
p1873
(dp1874
g19
S'H4sIAGg7El0C/2tgSs4rzS2o1EvOL0rVyy3NKclMLCpKrOSKL0pNzs8rLikqTS7hKmSEqOLKS4HI\nFjJ5M7SGMia1BxUya3gzejO1QhWklFQWpHIVsoQypVl4M3gzAhWwangzhzLa+Pn5ef0HAjDhzVCS\n1Bkq4H2C3XZ26FN7BigoSdIDAObNAnCRAAAA\n'
p1875
sg20
g162
sg22
I300
ssS'use_above_range_color'
p1876
I0
sS'vector_size'
p1877
I-1
sS'alpha_range'
p1878
(dp1879
g19
S'H4sIAGg7El0C/2tgSs4rzS2o1EvOL0rVyy3NKclMLCpKrOSKL0pNzs8rLikqTS7hKmSEqOLKS4HI\nFjJ5M7SGMia1BxUya3gzejO1QhWklFQWpHIVsoQypVl4M3gzAhWwangzhzLa+Pn5ef0HAjDhzVCS\n1BkqwAAGH+xhdEmSHgBnOGdykQAAAA==\n'
p1880
sg20
g162
sg22
I304
ssS'alpha'
p1881
F1
sS'ramp_'
p1882
I2
sS'number_of_table_values'
p1883
L256L
sS'ramp'
p1884
S'sqrt'
p1885
sg173
I0
sS'use_below_range_color'
p1886
I0
sS'range'
p1887
(dp1888
g19
S'H4sIAGg7El0C/2tgSs4rzS2o1EvOL0rVyy3NKclMLCpKrOSKL0pNzs8rLikqTS7hKmSEqOLKS4HI\nFjJ5M7SGMia1BxUya3gzejO1QhWklFQWpHIVsoQypVl4M3gzAhWwangzhzLa+Pn5ef0HAjDhzVCS\n1BkqwIACPtiXJOkBAIHIRA6RAAAA\n'
p1889
sg20
g162
sg22
I306
ssg165
I0
ssg20
g44
sg22
I298
sssS'_title_text_property'
p1890
(dp1891
g2
(lp1892
((S'CHasTraits'
S'traits.ctraits'
tI-1
tp1893
a((g5
g6
tI-1
tp1894
a((g8
g6
tI-1
tp1895
a((g116
g117
tI-1
tp1896
a((g119
g120
tI-1
tp1897
a((g122
g123
tI-1
tp1898
a((g1792
g1793
tI-1
tp1899
asg16
g1792
sg17
(dp1900
g19
Nsg20
g36
sg22
I13
ssg20
g23
sg22
I317
sg24
g1793
sg19
(dp1901
g19
(dp1902
g287
F0
sg1798
F1.1000000000000001
sg1799
Nsg1800
(dp1903
g19
Nsg20
g36
sg22
I75
ssg603
(dp1904
g19
Nsg20
g36
sg22
I67
ssg1803
I1
sg1804
g1805
sg1806
F1
sg1807
g1808
sg1809
I1
sg1810
F0
sg1811
I1
sg1812
I0
sg170
I0
sg1813
(dp1905
g19
S'H4sIAGg7El0C/2tgSs4rzS2o1EvOL0rVyy3NKclMLCpKrOSKL0pNzs8rLikqTS7hKmSEqOLKS4HI\nFjJ5M7SGMia1BxUya3gzejO1QhWklFQWpHIVsoQyZVp4M3gzAhWwangzhzLa+Pn5ef0HAjDhzVCS\n1BkqwMgAAf+hoCRJDwBQGVfqkQAAAA==\n'
p1906
sg20
g162
sg22
I319
ssg1816
I1
sg1817
I0
sg1818
I12
sg1819
g1820
sg173
I0
sg165
I0
sg1821
F0
ssg20
g44
sg22
I318
sssg1866
I256
sS'_orig_data_range'
p1907
(dp1908
g19
S'H4sIAGg7El0C/2tgSs4rzS2o1EvOL0rVyy3NKclMLCpKrOSKL0pNzs8rLikqTS7hKmSEqOLKS4HI\nFjJ5M7SGMia1BxUya3gzejO1QhWklFQWpHIVsoQypVl4M3gzAhWwangzhzLa+Pn5ef0HAjDhzVCS\n1BkqwIACPtiXJOkBAIHIRA6RAAAA\n'
p1909
sg20
g162
sg22
I310
ssS'recorder'
p1910
NsS'reverse_lut'
p1911
I00
sg20
S''
sS'scalar_bar_representation'
p1912
(dp1913
g2
(lp1914
((S'CHasTraits'
S'traits.ctraits'
tI-1
tp1915
a((g5
g6
tI-1
tp1916
a((g8
g6
tI-1
tp1917
a((g116
g117
tI-1
tp1918
a((g119
g120
tI-1
tp1919
a((g122
g123
tI-1
tp1920
a((g269
g270
tI-1
tp1921
a((S'WidgetRepresentation'
p1922
S'tvtk.tvtk_classes.widget_representation'
p1923
tI-1
tp1924
a((S'BorderRepresentation'
p1925
S'tvtk.tvtk_classes.border_representation'
p1926
tI-1
tp1927
a((S'ScalarBarRepresentation'
p1928
S'tvtk.tvtk_classes.scalar_bar_representation'
p1929
tI-1
tp1930
asg16
g1928
sg17
(dp1931
g19
Nsg20
g36
sg22
I13
ssg20
g23
sg22
I311
sg24
g1929
sg19
(dp1932
g19
(dp1933
S'show_horizontal_border'
p1934
I2
sg287
I1
sS'need_to_render'
p1935
I0
sg291
I1
sg293
I1
sg295
I1
sS'show_border'
p1936
S'active'
p1937
sS'place_factor'
p1938
F0.5
sS'show_border_'
p1939
I2
sS'handle_size'
p1940
F0.01
sS'proportional_resize_'
p1941
I0
sS'position2'
p1942
(dp1943
g19
S'H4sIAGg7El0C/2tgSs4rzS2o1EvOL0rVyy3NKclMLCpKrOSKL0pNzs8rLikqTS7hKmSEqOLKS4HI\nFjJ5M7SGMia1BxUya3gzejO1QhWklFQWpHIVsoQypVl4M3gzAhWwangzhzLa+Pn5ef0HAjDhzVCS\n1BkqcPirRkz/oaP2s2aCwEv7kiQ9AC+e0nyRAAAA\n'
p1944
sg20
g162
sg22
I313
ssS'moving_'
p1945
I0
sS'maximum_size'
p1946
(dp1947
g19
S'H4sIAGg7El0C/2tgSs4rzS2o1EvOL0rVyy3NKclMLCpKrOSKL0pNzs8rLikqTS7hKmSEqOLKS4HI\nFjJ5M7SGMia1BxUya3gzejO1QhWklFQWpHIVsoQyZVp4M3gzAhWwangzhzLa+Pn5ef0HAjDhzVCS\n1BkqsKCNkQEEYHRJkh4A1B9nXZEAAAA=\n'
p1948
sg20
g162
sg22
I314
ssg300
I1
sg258
I3
sS'minimum_size'
p1949
(dp1950
g19
S'H4sIAGg7El0C/2tgSs4rzS2o1EvOL0rVyy3NKclMLCpKrOSKL0pNzs8rLikqTS7hKmSEqOLKS4HI\nFjJ5M7SGMia1BxUya3gzejO1QhWklFQWpHIVsoQyZVp4M3gzAhWwangzhzLa+Pn5ef0HAjDhzVCS\n1BkqwMgAATC6JEkPAAKoMt2RAAAA\n'
p1951
sg20
g162
sg22
I315
ssg292
I1
sg294
I1
sg170
I0
sS'moving'
p1952
I0
sg301
F1
sS'show_vertical_border'
p1953
I0
sS'need_to_render_'
p1954
I0
sg302
I01
sg290
F0
sS'proportional_resize'
p1955
I0
sg173
I0
sg373
I01
sg165
I0
sg297
(dp1956
g19
S'H4sIAGg7El0C/2tgSs4rzS2o1EvOL0rVyy3NKclMLCpKrOSKL0pNzs8rLikqTS7hKmSEqOLKS4HI\nFjJ5M7SGMia1BxUya3gzejO1QhWklFQWpHIVsoQypVl4M3gzAhWwangzhzLa+Pn5ef0HAjDhzVCS\n1BkqYMt1fXGB7Sv7WTNBYKd9SZIeADd4AQGRAAAA\n'
p1957
sg20
g162
sg22
I316
ssg376
I1
ssg20
g44
sg22
I312
sssS'scalar_bar_widget'
p1958
(dp1959
g2
(lp1960
((S'CHasTraits'
S'traits.ctraits'
tI-1
tp1961
a((g5
g6
tI-1
tp1962
a((g8
g6
tI-1
tp1963
a((g116
g117
tI-1
tp1964
a((g119
g120
tI-1
tp1965
a((g122
g123
tI-1
tp1966
a((g359
g360
tI-1
tp1967
a((S'AbstractWidget'
p1968
S'tvtk.tvtk_classes.abstract_widget'
p1969
tI-1
tp1970
a((S'BorderWidget'
p1971
S'tvtk.tvtk_classes.border_widget'
p1972
tI-1
tp1973
a((S'ScalarBarWidget'
p1974
S'tvtk.tvtk_classes.scalar_bar_widget'
p1975
tI-1
tp1976
asg16
g1974
sg17
(dp1977
g19
Nsg20
g36
sg22
I13
ssg20
g23
sg22
I308
sg24
g1975
sg19
(dp1978
g19
(dp1979
S'process_events_'
p1980
I1
sg368
S'i'
sS'resizable'
p1981
I1
sg170
I0
sg165
I0
sg369
I0
sg372
I0
sg173
I0
sS'manages_cursor'
p1982
I1
sg371
F0.5
sS'repositionable'
p1983
I1
sS'repositionable_'
p1984
I1
sS'manages_cursor_'
p1985
I1
sg373
I01
sg374
I0
sS'resizable_'
p1986
I1
sS'selectable_'
p1987
I0
sS'selectable'
p1988
I0
sg375
I0
sg376
I1
sS'process_events'
p1989
I1
ssg20
g44
sg22
I309
sssS'show_scalar_bar'
p1990
I00
sg1817
I00
sS'lut_mode'
p1991
S'Accent'
p1992
sS'use_default_name'
p1993
I01
sg27
S''
sS'number_of_labels'
p1994
I8
sS'data_range'
p1995
(dp1996
g19
Nsg20
g36
sg22
I296
ssS'default_data_name'
p1997
S'No vectors'
p1998
sg869
S''
sS'use_default_range'
p1999
I01
sS'scalar_bar'
p2000
(dp2001
g2
(lp2002
((S'CHasTraits'
S'traits.ctraits'
tI-1
tp2003
a((g5
g6
tI-1
tp2004
a((g8
g6
tI-1
tp2005
a((g116
g117
tI-1
tp2006
a((g119
g120
tI-1
tp2007
a((g122
g123
tI-1
tp2008
a((g269
g270
tI-1
tp2009
a((S'Actor2D'
p2010
S'tvtk.tvtk_classes.actor2d'
p2011
tI-1
tp2012
a((S'ScalarBarActor'
p2013
S'tvtk.tvtk_classes.scalar_bar_actor'
p2014
tI-1
tp2015
asg16
g2013
sg17
(dp2016
g19
Nsg20
g36
sg22
I13
ssg20
g23
sg22
I320
sg24
g2014
sg19
(dp2017
g19
(dp2018
S'title_ratio'
p2019
F0.5
sg287
S'vertical'
p2020
sS'annotation_text_scaling'
p2021
I0
sS'fixed_annotation_leader_line_color'
p2022
I0
sS'height'
p2023
F0.17000000000000001
sg295
I1
sS'bar_ratio'
p2024
F0.375
sS'text_pad'
p2025
I1
sg296
I1
sS'draw_nan_annotation_'
p2026
I0
sS'draw_tick_labels_'
p2027
I1
sS'layer_number'
p2028
I0
sS'title'
p2029
S'No vectors'
p2030
sS'draw_frame_'
p2031
I0
sg302
I01
sS'width'
p2032
F0.80000000000000004
sS'annotation_leader_padding'
p2033
F8
sS'texture_grid_width'
p2034
F10
sS'text_position'
p2035
S'succeed_scalar_bar'
p2036
sS'draw_color_bar_'
p2037
I1
sg300
I1
sg291
I1
sS'use_opacity'
p2038
I0
sS'draw_color_bar'
p2039
I1
sS'draw_annotations_'
p2040
I1
sS'maximum_width_in_pixels'
p2041
I2147483647
sS'vertical_title_separation'
p2042
I0
sS'maximum_height_in_pixels'
p2043
I2147483647
sg294
I1
sg170
I0
sS'nan_annotation'
p2044
S'NaN'
p2045
sS'fixed_annotation_leader_line_color_'
p2046
I0
sS'orientation_'
p2047
I1
sg301
F1
sg293
I1
sS'component_title'
p2048
NsS'draw_frame'
p2049
I0
sS'draw_tick_labels'
p2050
I1
sS'draw_nan_annotation'
p2051
I0
sg290
F0
sS'draw_background'
p2052
I0
sg1994
I8
sg173
I0
sS'label_format'
p2053
S'%-#6.3g'
p2054
sS'use_opacity_'
p2055
I0
sg292
I1
sg1942
(dp2056
g19
S'H4sIAGg7El0C/2tgSs4rzS2o1EvOL0rVyy3NKclMLCpKrOSKL0pNzs8rLikqTS7hKmSEqOLKS4HI\nFjJ5M7SGMia1BxUya3gzejO1QhWklFQWpHIVsoQypVl4M3gzAhWwangzhzLa+Pn5ef0HAjDhzVCS\n1BkqMGsmCLy0P/xVI6b/0FH7kiQ9AGpIg++RAAAA\n'
p2057
sg20
g162
sg22
I323
ssg165
I0
sg297
(dp2058
g19
S'H4sIAGg7El0C/2tgSs4rzS2o1EvOL0rVyy3NKclMLCpKrOSKL0pNzs8rLikqTS7hKmSEqOLKS4HI\nFjJ5M7SGMia1BxUya3gzejO1QhWklFQWpHIVsoQypVl4M3gzAhWwangzhzLa+Pn5ef0HAjDhzVCS\n1BkqMGsmCOy0rxZZ5/6wqsW+JEkPAHMFfKeRAAAA\n'
p2059
sg20
g162
sg22
I322
ssS'draw_background_'
p2060
I0
sS'draw_annotations'
p2061
I1
sS'maximum_number_of_colors'
p2062
I256
ssg20
g44
sg22
I321
ssssg20
g44
sg22
I292
sssg869
S''
sS'scalar_lut_manager'
p2063
(dp2064
g2
(lp2065
((S'CHasTraits'
S'traits.ctraits'
tI-1
tp2066
a((g5
g6
tI-1
tp2067
a((g61
g6
tI-1
tp2068
a((g63
g64
tI-1
tp2069
a((g66
g67
tI0
tp2070
a((g1777
g1778
tI0
tp2071
asg16
g1777
sg17
(dp2072
g19
Nsg20
g36
sg22
I1
ssg20
g23
sg22
I360
sg24
g1778
sg19
(dp2073
g19
(dp2074
g1783
(dp2075
g2
(lp2076
((S'CHasTraits'
S'traits.ctraits'
tI-1
tp2077
a((g5
g6
tI-1
tp2078
a((g8
g6
tI-1
tp2079
a((g116
g117
tI-1
tp2080
a((g119
g120
tI-1
tp2081
a((g122
g123
tI-1
tp2082
a((g1792
g1793
tI-1
tp2083
asg16
g1792
sg17
(dp2084
g19
Nsg20
g36
sg22
I13
ssg20
g23
sg22
I362
sg24
g1793
sg19
(dp2085
g19
(dp2086
g287
F0
sg1798
F1.1000000000000001
sg1799
Nsg1800
(dp2087
g19
Nsg20
g36
sg22
I75
ssg603
(dp2088
g19
Nsg20
g36
sg22
I67
ssg1803
I1
sg1804
g1805
sg1806
F1
sg1807
g1808
sg1809
I1
sg1810
F0
sg1811
I1
sg1812
I0
sg170
I0
sg1813
(dp2089
g19
S'H4sIAGk7El0C/2tgSs4rzS2o1EvOL0rVyy3NKclMLCpKrOSKL0pNzs8rLikqTS7hKmSEqOLKS4HI\nFjJ5M7SGMia1BxUya3gzejO1QhWklFQWpHIVsoQyZVp4M3gzAhWwangzhzLa+Pn5ef0HAjDhzVCS\n1BkqwMgAAf+hoCRJDwBQGVfqkQAAAA==\n'
p2090
sg20
g162
sg22
I364
ssg1816
I1
sg1817
I0
sg1818
I12
sg1819
g1820
sg173
I0
sg165
I0
sg1821
F0
ssg20
g44
sg22
I363
sssg1822
S''
sg1823
S'Scalars'
p2091
sg1748
I01
sg1825
(dp2092
g19
S'H4sIAGk7El0C/2tgSs4rzS2o1EvOL0rVyy3NKclMLCpKrOSKL0pNzs8rLikqTS7hKmSEqOLKS4HI\nFjJ5M7SGMia1BxUya3gzejO1QhWklFQWpHIVsoQypVl4M3gzAhWwangzhzLa+Pn5ef0HAjDhzVCS\n1BkqwAAGH+xhdEmSHgBnOGdykQAAAA==\n'
p2093
sg20
g162
sg22
I365
ssg1828
(dp2094
g2
(lp2095
((S'CHasTraits'
S'traits.ctraits'
tI-1
tp2096
a((g5
g6
tI-1
tp2097
a((g8
g6
tI-1
tp2098
a((g116
g117
tI-1
tp2099
a((g119
g120
tI-1
tp2100
a((g122
g123
tI-1
tp2101
a((g1837
g1838
tI-1
tp2102
a((g1840
g1841
tI-1
tp2103
asg16
g1840
sg17
(dp2104
g19
Nsg20
g36
sg22
I13
ssg20
g23
sg22
I366
sg24
g1841
sg19
(dp2105
g19
(dp2106
g1846
(dp2107
g19
S'H4sIAGk7El0C/2tgSs4rzS2o1EvOL0rVyy3NKclMLCpKrOSKL0pNzs8rLikqTS7hKmSEqOLKS4HI\nFjJ5M7SGMia1BxUya3gzerO0QhWklFQWpHIVsoQypVl4M3gzAhWwangzhzLa+Pn5ef0HAjDhzVCS\n1BmqwIAXfLAvSdIDAIHIZ5ChAAAA\n'
p2108
sg20
g162
sg22
I368
ssg1849
I0
sg1850
I0
sg1851
(dp2109
g19
S'H4sIAGk7El0C/2tgSs4rzS2o1EvOL0rVyy3NKclMLCpKrOSKL0pNzs8rLikqTS7hKmSEqOLKS4HI\nFjJ5M7SGMia1BxUya3gzerO0QhWklFQWpHIVsoQypVl4M3gzAhWwangzhzLa+Pn5ef0HAjDhzVCS\n1BmqwAAGD+wZsIIP9iVJegB4/hL5oQAAAA==\n'
p2110
sg20
g162
sg22
I370
ssg1854
(dp2111
g19
S'H4sIAGk7El0C/2tgSs4rzS2o1EvOL0rVyy3NKclMLCpKrOSKL0pNzs8rLikqTS7hKmSEqOLKS4HI\nFjJ5M7SGMia1BxUya3gzerO0QhWklFQWpHIVsoQypVl4M3gzAhWwangzhzLa+Pn5ef0HAjDhzVCS\n1BmqwAAGH+xx0SVJegDy7yKfoQAAAA==\n'
p2112
sg20
g162
sg22
I371
ssg1857
(dp2113
g19
S'H4sIAGk7El0C/2tgSs4rzS2o1EvOL0rVyy3NKclMLCpKrOSKL0pNzs8rLikqTS7hKmSEqOLKS4HI\nFjJ5M7SGMia1BxUya3gzejO1QhWklFQWpHIVsoQypVl4M3gzAhWwangzhzLa+Pn5ef0HAjDhzVCS\n1BkqwAAGH+xhdEmSHgBnOGdykQAAAA==\n'
p2114
sg20
g162
sg22
I372
ssg1860
I0
sg284
g1861
sg1862
(dp2115
g19
S'H4sIAGk7El0C/2tgSs4rzS2o1EvOL0rVyy3NKclMLCpKrOSKL0pNzs8rLikqTS7hKmSEqOLKS4HI\nFjJ5M7SGMia1BxUya3gzejO1QhWklFQWpHIVsoQypVl4M3gzAhWwangzhzLa+Pn5ef0HAjDhzVCS\n1BkqwAAGH+xhdEmSHgBnOGdykQAAAA==\n'
p2116
sg20
g162
sg22
I374
ssg1865
I0
sg1866
L256L
sg1867
(dp2117
g19
S'H4sIAGk7El0C/2tgSs4rzS2o1EvOL0rVyy3NKclMLCpKrOSKL0pNzs8rLikqTS7hKmSEqOLKS4HI\nFjJ5M7SGMia1BxUya3gzejO1QhWklFQWpHIVsoQypVl4M3gzAhWwangzhzLa+Pn5ef0HAjDhzVCS\n1BkqwAAGH+xhdEmSHgBnOGdykQAAAA==\n'
p2118
sg20
g162
sg22
I376
ssg1870
g1871
sg170
I0
sg1872
I0
sg1873
(dp2119
g19
S'H4sIAGk7El0C/2tgSs4rzS2o1EvOL0rVyy3NKclMLCpKrOSKL0pNzs8rLikqTS7hKmSEqOLKS4HI\nFjJ5M7SGMia1BxUya3gzejO1QhWklFQWpHIVsoQypVl4M3gzAhWwangzhzLa+Pn5ef0HAjDhzVCS\n1Bkq4H2C3XZ26FN7BigoSdIDAObNAnCRAAAA\n'
p2120
sg20
g162
sg22
I369
ssg1876
I0
sg1877
I-1
sg1878
(dp2121
g19
S'H4sIAGk7El0C/2tgSs4rzS2o1EvOL0rVyy3NKclMLCpKrOSKL0pNzs8rLikqTS7hKmSEqOLKS4HI\nFjJ5M7SGMia1BxUya3gzejO1QhWklFQWpHIVsoQypVl4M3gzAhWwangzhzLa+Pn5ef0HAjDhzVCS\n1BkqwAAGH+xhdEmSHgBnOGdykQAAAA==\n'
p2122
sg20
g162
sg22
I373
ssg1881
F1
sg1882
I2
sg1883
L256L
sg1884
g1885
sg173
I0
sg1886
I0
sg1887
(dp2123
g19
S'H4sIAGk7El0C/2tgSs4rzS2o1EvOL0rVyy3NKclMLCpKrOSKL0pNzs8rLikqTS7hKmSEqOLKS4HI\nFjJ5M7SGMia1BxUya3gzejO1QhWklFQWpHIVsoQypVl4M3gzAhWwangzhzLa+Pn5ef0HAjDhzVCS\n1BkqwAAGH+xhdEmSHgBnOGdykQAAAA==\n'
p2124
sg20
g162
sg22
I375
ssg165
I0
ssg20
g44
sg22
I367
sssg1890
(dp2125
g2
(lp2126
((S'CHasTraits'
S'traits.ctraits'
tI-1
tp2127
a((g5
g6
tI-1
tp2128
a((g8
g6
tI-1
tp2129
a((g116
g117
tI-1
tp2130
a((g119
g120
tI-1
tp2131
a((g122
g123
tI-1
tp2132
a((g1792
g1793
tI-1
tp2133
asg16
g1792
sg17
(dp2134
g19
Nsg20
g36
sg22
I13
ssg20
g23
sg22
I386
sg24
g1793
sg19
(dp2135
g19
(dp2136
g287
F0
sg1798
F1.1000000000000001
sg1799
Nsg1800
(dp2137
g19
Nsg20
g36
sg22
I75
ssg603
(dp2138
g19
Nsg20
g36
sg22
I67
ssg1803
I1
sg1804
g1805
sg1806
F1
sg1807
g1808
sg1809
I1
sg1810
F0
sg1811
I1
sg1812
I0
sg170
I0
sg1813
(dp2139
g19
S'H4sIAGk7El0C/2tgSs4rzS2o1EvOL0rVyy3NKclMLCpKrOSKL0pNzs8rLikqTS7hKmSEqOLKS4HI\nFjJ5M7SGMia1BxUya3gzejO1QhWklFQWpHIVsoQyZVp4M3gzAhWwangzhzLa+Pn5ef0HAjDhzVCS\n1BkqwMgAAf+hoCRJDwBQGVfqkQAAAA==\n'
p2140
sg20
g162
sg22
I388
ssg1816
I1
sg1817
I0
sg1818
I12
sg1819
g1820
sg173
I0
sg165
I0
sg1821
F0
ssg20
g44
sg22
I387
sssg1866
I256
sg1907
(dp2141
g19
S'H4sIAGk7El0C/2tgSs4rzS2o1EvOL0rVyy3NKclMLCpKrOSKL0pNzs8rLikqTS7hKmSEqOLKS4HI\nFjJ5M7SGMia1BxUya3gzejO1QhWklFQWpHIVsoQypVl4M3gzAhWwangzhzLa+Pn5ef0HAjDhzVCS\n1BkqwIACPtiXJOkBAIHIRA6RAAAA\n'
p2142
sg20
g162
sg22
I379
ssg1910
Nsg1911
I00
sg20
S''
sg1912
(dp2143
g2
(lp2144
((S'CHasTraits'
S'traits.ctraits'
tI-1
tp2145
a((g5
g6
tI-1
tp2146
a((g8
g6
tI-1
tp2147
a((g116
g117
tI-1
tp2148
a((g119
g120
tI-1
tp2149
a((g122
g123
tI-1
tp2150
a((g269
g270
tI-1
tp2151
a((g1922
g1923
tI-1
tp2152
a((g1925
g1926
tI-1
tp2153
a((g1928
g1929
tI-1
tp2154
asg16
g1928
sg17
(dp2155
g19
Nsg20
g36
sg22
I13
ssg20
g23
sg22
I380
sg24
g1929
sg19
(dp2156
g19
(dp2157
g1934
I2
sg287
I1
sg1935
I0
sg291
I1
sg293
I1
sg295
I1
sg1936
g1937
sg1938
F0.5
sg1939
I2
sg1940
F0.01
sg1941
I0
sg1942
(dp2158
g19
S'H4sIAGk7El0C/2tgSs4rzS2o1EvOL0rVyy3NKclMLCpKrOSKL0pNzs8rLikqTS7hKmSEqOLKS4HI\nFjJ5M7SGMia1BxUya3gzejO1QhWklFQWpHIVsoQypVl4M3gzAhWwangzhzLa+Pn5ef0HAjDhzVCS\n1BkqcPirRkz/oaP2s2aCwEv7kiQ9AC+e0nyRAAAA\n'
p2159
sg20
g162
sg22
I382
ssg1945
I0
sg1946
(dp2160
g19
S'H4sIAGk7El0C/2tgSs4rzS2o1EvOL0rVyy3NKclMLCpKrOSKL0pNzs8rLikqTS7hKmSEqOLKS4HI\nFjJ5M7SGMia1BxUya3gzejO1QhWklFQWpHIVsoQyZVp4M3gzAhWwangzhzLa+Pn5ef0HAjDhzVCS\n1BkqsKCNkQEEYHRJkh4A1B9nXZEAAAA=\n'
p2161
sg20
g162
sg22
I383
ssg300
I1
sg258
I3
sg1949
(dp2162
g19
S'H4sIAGk7El0C/2tgSs4rzS2o1EvOL0rVyy3NKclMLCpKrOSKL0pNzs8rLikqTS7hKmSEqOLKS4HI\nFjJ5M7SGMia1BxUya3gzejO1QhWklFQWpHIVsoQyZVp4M3gzAhWwangzhzLa+Pn5ef0HAjDhzVCS\n1BkqwMgAATC6JEkPAAKoMt2RAAAA\n'
p2163
sg20
g162
sg22
I384
ssg292
I1
sg294
I1
sg170
I0
sg1952
I0
sg301
F1
sg1953
I0
sg1954
I0
sg302
I01
sg290
F0
sg1955
I0
sg173
I0
sg373
I01
sg165
I0
sg297
(dp2164
g19
S'H4sIAGk7El0C/2tgSs4rzS2o1EvOL0rVyy3NKclMLCpKrOSKL0pNzs8rLikqTS7hKmSEqOLKS4HI\nFjJ5M7SGMia1BxUya3gzejO1QhWklFQWpHIVsoQypVl4M3gzAhWwangzhzLa+Pn5ef0HAjDhzVCS\n1BkqYMt1fXGB7Sv7WTNBYKd9SZIeADd4AQGRAAAA\n'
p2165
sg20
g162
sg22
I385
ssg376
I1
ssg20
g44
sg22
I381
sssg1958
(dp2166
g2
(lp2167
((S'CHasTraits'
S'traits.ctraits'
tI-1
tp2168
a((g5
g6
tI-1
tp2169
a((g8
g6
tI-1
tp2170
a((g116
g117
tI-1
tp2171
a((g119
g120
tI-1
tp2172
a((g122
g123
tI-1
tp2173
a((g359
g360
tI-1
tp2174
a((g1968
g1969
tI-1
tp2175
a((g1971
g1972
tI-1
tp2176
a((g1974
g1975
tI-1
tp2177
asg16
g1974
sg17
(dp2178
g19
Nsg20
g36
sg22
I13
ssg20
g23
sg22
I377
sg24
g1975
sg19
(dp2179
g19
(dp2180
g1980
I1
sg368
S'i'
sg1981
I1
sg170
I0
sg165
I0
sg369
I0
sg372
I0
sg173
I0
sg1982
I1
sg371
F0.5
sg1983
I1
sg1984
I1
sg1985
I1
sg373
I01
sg374
I0
sg1986
I1
sg1987
I0
sg1988
I0
sg375
I0
sg376
I1
sg1989
I1
ssg20
g44
sg22
I378
sssg1990
I00
sg1817
I00
sg1991
S'gist_gray'
p2181
sg1993
I01
sg27
S''
sg1994
I8
sg1995
(dp2182
g19
Nsg20
g36
sg22
I365
ssg1997
S'Scalars'
p2183
sg869
S''
sg1999
I01
sg2000
(dp2184
g2
(lp2185
((S'CHasTraits'
S'traits.ctraits'
tI-1
tp2186
a((g5
g6
tI-1
tp2187
a((g8
g6
tI-1
tp2188
a((g116
g117
tI-1
tp2189
a((g119
g120
tI-1
tp2190
a((g122
g123
tI-1
tp2191
a((g269
g270
tI-1
tp2192
a((g2010
g2011
tI-1
tp2193
a((g2013
g2014
tI-1
tp2194
asg16
g2013
sg17
(dp2195
g19
Nsg20
g36
sg22
I13
ssg20
g23
sg22
I389
sg24
g2014
sg19
(dp2196
g19
(dp2197
g2019
F0.5
sg287
g2020
sg2021
I0
sg2022
I0
sg2023
F0.17000000000000001
sg295
I1
sg2024
F0.375
sg2025
I1
sg296
I1
sg2026
I0
sg2027
I1
sg2028
I0
sg2029
S'Scalars'
p2198
sg2031
I0
sg302
I01
sg2032
F0.80000000000000004
sg2033
F8
sg2034
F10
sg2035
g2036
sg2037
I1
sg300
I1
sg291
I1
sg2038
I0
sg2039
I1
sg2040
I1
sg2041
I2147483647
sg2042
I0
sg2043
I2147483647
sg294
I1
sg170
I0
sg2044
S'NaN'
p2199
sg2046
I0
sg2047
I1
sg301
F1
sg293
I1
sg2048
Nsg2049
I0
sg2050
I1
sg2051
I0
sg290
F0
sg2052
I0
sg1994
I8
sg173
I0
sg2053
S'%-#6.3g'
p2200
sg2055
I0
sg292
I1
sg1942
(dp2201
g19
S'H4sIAGk7El0C/2tgSs4rzS2o1EvOL0rVyy3NKclMLCpKrOSKL0pNzs8rLikqTS7hKmSEqOLKS4HI\nFjJ5M7SGMia1BxUya3gzejO1QhWklFQWpHIVsoQypVl4M3gzAhWwangzhzLa+Pn5ef0HAjDhzVCS\n1BkqMGsmCLy0P/xVI6b/0FH7kiQ9AGpIg++RAAAA\n'
p2202
sg20
g162
sg22
I392
ssg165
I0
sg297
(dp2203
g19
S'H4sIAGk7El0C/2tgSs4rzS2o1EvOL0rVyy3NKclMLCpKrOSKL0pNzs8rLikqTS7hKmSEqOLKS4HI\nFjJ5M7SGMia1BxUya3gzejO1QhWklFQWpHIVsoQypVl4M3gzAhWwangzhzLa+Pn5ef0HAjDhzVCS\n1BkqMGsmCOy0rxZZ5/6wqsW+JEkPAHMFfKeRAAAA\n'
p2204
sg20
g162
sg22
I391
ssg2060
I0
sg2061
I1
sg2062
I256
ssg20
g44
sg22
I390
ssssg20
g44
sg22
I361
sssg20
S' colors and legends'
p2205
sg871
(dp2206
g19
(lp2207
(dp2208
g2
(lp2209
((S'CHasTraits'
S'traits.ctraits'
tI-1
tp2210
a((g5
g6
tI-1
tp2211
a((g61
g6
tI-1
tp2212
a((g63
g64
tI-1
tp2213
a((g66
g67
tI0
tp2214
a((g1392
g1393
tI0
tp2215
a((S'Module'
p2216
S'mayavi.core.module'
p2217
tI0
tp2218
a((S'Surface'
p2219
S'mayavi.modules.surface'
p2220
tI0
tp2221
asg16
g2219
sg17
(dp2222
g19
Nsg20
g36
sg22
I1
ssg20
g23
sg22
I325
sg24
g2220
sg19
(dp2223
g19
(dp2224
S'enable_contours'
p2225
I00
sS'_widget_state'
p2226
(dp2227
g19
(lp2228
sg20
g866
sg22
I327
ssg27
S'Surface'
p2229
sS'input_info'
p2230
(dp2231
g2
(lp2232
((S'CHasTraits'
S'traits.ctraits'
tI-1
tp2233
a((g5
g6
tI-1
tp2234
a((g1731
g1732
tI-1
tp2235
asg16
g1731
sg17
(dp2236
g19
Nsg20
g36
sg22
I1
ssg20
g23
sg22
I328
sg24
g1732
sg19
(dp2237
g19
(dp2238
g1737
(dp2239
g19
(lp2240
g1740
asg20
g866
sg22
I330
ssg1741
(dp2241
g19
(lp2242
g1740
asg20
g866
sg22
I331
ssg1745
(dp2243
g19
(lp2244
g1740
asg20
g866
sg22
I332
sssg20
g44
sg22
I329
sssg657
(dp2245
g2
(lp2246
((S'CHasTraits'
S'traits.ctraits'
tI-1
tp2247
a((g5
g6
tI-1
tp2248
a((g61
g6
tI-1
tp2249
a((g63
g64
tI-1
tp2250
a((g66
g67
tI0
tp2251
a((g1392
g1393
tI0
tp2252
a((S'Component'
p2253
S'mayavi.core.component'
p2254
tI0
tp2255
a((g275
S'mayavi.components.actor'
p2256
tI0
tp2257
asg16
g275
sg17
(dp2258
g19
Nsg20
g36
sg22
I1
ssg20
g23
sg22
I341
sg24
g2256
sg19
(dp2259
g19
(dp2260
S'mapper'
p2261
(dp2262
g2
(lp2263
((S'CHasTraits'
S'traits.ctraits'
tI-1
tp2264
a((g5
g6
tI-1
tp2265
a((g8
g6
tI-1
tp2266
a((g116
g117
tI-1
tp2267
a((g119
g120
tI-1
tp2268
a((g122
g123
tI-1
tp2269
a((g125
g126
tI-1
tp2270
a((g128
g129
tI-1
tp2271
a((g131
g132
tI-1
tp2272
a((g134
g135
tI-1
tp2273
a((S'DataSetMapper'
p2274
S'tvtk.tvtk_classes.data_set_mapper'
p2275
tI-1
tp2276
asg16
g2274
sg17
(dp2277
g19
Nsg20
g36
sg22
I13
ssg20
g23
sg22
I350
sg24
g2275
sg19
(dp2278
g19
(dp2279
g144
I0
sg145
I0
sg146
g147
sg148
I0
sg173
I0
sg150
F0.01
sg152
g147
sg153
I0
sg165
I0
sg154
I0
sg155
I1
sg156
I0
sg157
I0
sg158
F1
sg159
(dp2280
g19
S'H4sIAGk7El0C/2tgSs4rzS2o1EvOL0rVyy3NKclMLCpKrOSKL0pNzs8rLikqTS7hKmSEqOLKS4HI\nFjJ5M7SGMia1BxUya3gzejO1QhWklFQWpHIVsoQypVl4M3gzAhWwangzhzLa+Pn5ef0HAjDhzVCS\n1BkqwAAGH+xhdEmSHgBnOGdykQAAAA==\n'
p2281
sg20
g162
sg22
I352
ssg163
Nsg164
I1
sg170
I0
sg166
I0
sg167
I0
sg168
I1
sg169
L-1L
sg171
I0
sg172
I1
sg149
I0
sg175
I0
sg178
g147
sg179
I0
sg184
I1
sg181
I0
sg182
g183
sg176
F0
ssg20
g44
sg22
I351
sssg2226
(dp2282
g19
(lp2283
sg20
g866
sg22
I343
ssS'name'
p2284
S''
sg2230
Nsg657
(dp2285
g2
(lp2286
((S'CHasTraits'
S'traits.ctraits'
tI-1
tp2287
a((g5
g6
tI-1
tp2288
a((g8
g6
tI-1
tp2289
a((g116
g117
tI-1
tp2290
a((g119
g120
tI-1
tp2291
a((g122
g123
tI-1
tp2292
a((g269
g270
tI-1
tp2293
a((g272
g273
tI-1
tp2294
a((g275
g276
tI-1
tp2295
asg16
g275
sg17
(dp2296
g19
Nsg20
g36
sg22
I13
ssg20
g23
sg22
I344
sg24
g276
sg19
(dp2297
g19
(dp2298
g281
(dp2299
g19
S'H4sIAGk7El0C/2tgSs4rzS2o1EvOL0rVyy3NKclMLCpKrOSKL0pNzs8rLikqTS7hKmSEqOLKS4HI\nFjJ5M7SGMia1BxUya3gzejO3QhWklFQWpHIVsoQypVl4M3gzAhWwangzhzLa+Pn5ef0HAjDhzVCS\n1BkqwYADlCTpAQD67GqfmQAAAA==\n'
p2300
sg20
g162
sg22
I346
ssg284
(dp2301
g19
S'H4sIAGk7El0C/2tgSs4rzS2o1EvOL0rVyy3NKclMLCpKrOSKL0pNzs8rLikqTS7hKmSEqOLKS4HI\nFjJ5M7SGMia1BxUya3gzejO3QhWklFQWpHIVsoQypVl4M3gzAhWwangzhzLa+Pn5ef0HAjDhzVCS\n1BkqwQAGH+zR6ZIkPQDfyO6fmQAAAA==\n'
p2302
sg20
g162
sg22
I348
ssg287
(dp2303
g19
S'H4sIAGk7El0C/2tgSs4rzS2o1EvOL0rVyy3NKclMLCpKrOSKL0pNzs8rLikqTS7hKmSEqOLKS4HI\nFjJ5M7SGMia1BxUya3gzejO3QhWklFQWpHIVsoQypVl4M3gzAhWwangzhzLa+Pn5ef0HAjDhzVCS\n1BkqwYAKGmCMkiQ9ABqDrf+ZAAAA\n'
p2304
sg20
g162
sg22
I347
ssg290
F0.0028910636901855469
sg170
I0
sg165
I0
sg291
I1
sg292
I1
sg293
I1
sg294
I1
sg295
I1
sg173
I0
sg296
I1
sg297
(dp2305
g19
S'H4sIAGk7El0C/2tgSs4rzS2o1EvOL0rVyy3NKclMLCpKrOSKL0pNzs8rLikqTS7hKmSEqOLKS4HI\nFjJ5M7SGMia1BxUya3gzejO3QhWklFQWpHIVsoQypVl4M3gzAhWwangzhzLa+Pn5ef0HAjDhzVCS\n1BkqwYADlCTpAQD67GqfmQAAAA==\n'
p2306
sg20
g162
sg22
I349
ssg300
I1
sg301
F0.037530881870471586
sg302
I01
ssg20
g44
sg22
I345
sssg1748
I01
sg869
S''
sS'output_info'
p2307
Nsg1749
NsS'property'
p2308
(dp2309
g2
(lp2310
((S'CHasTraits'
S'traits.ctraits'
tI-1
tp2311
a((g5
g6
tI-1
tp2312
a((g8
g6
tI-1
tp2313
a((g116
g117
tI-1
tp2314
a((g119
g120
tI-1
tp2315
a((g122
g123
tI-1
tp2316
a((S'Property'
p2317
S'tvtk.tvtk_classes.property'
p2318
tI-1
tp2319
a((S'OpenGLProperty'
p2320
S'tvtk.tvtk_classes.open_gl_property'
p2321
tI-1
tp2322
asg16
g2320
sg17
(dp2323
g19
Nsg20
g36
sg22
I13
ssg20
g23
sg22
I353
sg24
g2321
sg19
(dp2324
g19
(dp2325
g628
(dp2326
g19
Nsg20
g36
sg22
I67
ssS'lighting_'
p2327
I1
sS'backface_culling'
p2328
I0
sS'specular_power'
p2329
F1
sg620
(dp2330
g19
Nsg20
g36
sg22
I67
ssg525
F0
sS'edge_visibility'
p2331
I0
sS'interpolation'
p2332
S'gouraud'
p2333
sg1806
F1
sS'frontface_culling'
p2334
I0
sS'point_size'
p2335
F1
sS'edge_color'
p2336
(dp2337
g19
Nsg20
g36
sg22
I75
ssS'shading_'
p2338
I0
sg631
(dp2339
g19
Nsg20
g36
sg22
I67
ssg170
I0
sS'backface_culling_'
p2340
I0
sS'lighting'
p2341
I01
sS'shading'
p2342
I0
sS'diffuse'
p2343
F1
sS'edge_visibility_'
p2344
I0
sg173
I0
sS'specular'
p2345
F0
sS'frontface_culling_'
p2346
I0
sS'line_stipple_pattern'
p2347
I65535
sg165
I0
sS'representation'
p2348
S'surface'
p2349
sS'line_stipple_repeat_factor'
p2350
I1
sS'line_width'
p2351
F2
ssg20
g44
sg22
I354
sssS'type'
p2352
S''
ssg20
g44
sg22
I342
sssg1748
I01
sg869
S''
sg2307
(dp2353
g2
(lp2354
((S'CHasTraits'
S'traits.ctraits'
tI-1
tp2355
a((g5
g6
tI-1
tp2356
a((g1731
g1732
tI-1
tp2357
asg16
g1731
sg17
(dp2358
g19
Nsg20
g36
sg22
I1
ssg20
g23
sg22
I355
sg24
g1732
sg19
(dp2359
g19
(dp2360
g1737
(dp2361
g19
(lp2362
sg20
g866
sg22
I357
ssg1741
(dp2363
g19
(lp2364
S'none'
p2365
asg20
g866
sg22
I358
ssg1745
(dp2366
g19
(lp2367
sg20
g866
sg22
I359
sssg20
g44
sg22
I356
sssg1749
Nsg2352
S' module'
p2368
sS'contour'
p2369
(dp2370
g2
(lp2371
((S'CHasTraits'
S'traits.ctraits'
tI-1
tp2372
a((g5
g6
tI-1
tp2373
a((g61
g6
tI-1
tp2374
a((g63
g64
tI-1
tp2375
a((g66
g67
tI0
tp2376
a((g1392
g1393
tI0
tp2377
a((g2253
g2254
tI0
tp2378
a((S'Contour'
p2379
S'mayavi.components.contour'
p2380
tI0
tp2381
asg16
g2379
sg17
(dp2382
g19
Nsg20
g36
sg22
I1
ssg20
g23
sg22
I333
sg24
g2380
sg19
(dp2383
g19
(dp2384
g2226
(dp2385
g19
(lp2386
sg20
g866
sg22
I335
ssg2284
S''
sS'auto_contours'
p2387
I01
sg2230
NsS'_current_range'
p2388
(dp2389
g19
Nsg20
g36
sg22
I1
ssS'filled_contours'
p2390
I00
sg1748
I01
sg869
S''
sS'_cont_filt'
p2391
(dp2392
g2
(lp2393
((S'CHasTraits'
S'traits.ctraits'
tI-1
tp2394
a((g5
g6
tI-1
tp2395
a((g8
g6
tI-1
tp2396
a((g116
g117
tI-1
tp2397
a((g119
g120
tI-1
tp2398
a((g122
g123
tI-1
tp2399
a((g125
g126
tI-1
tp2400
a((g313
g314
tI-1
tp2401
a((S'ContourFilter'
p2402
S'tvtk.tvtk_classes.contour_filter'
p2403
tI-1
tp2404
asg16
g2402
sg17
(dp2405
g19
Nsg20
g36
sg22
I13
ssg20
g23
sg22
I336
sg24
g2403
sg19
(dp2406
g19
(dp2407
S'compute_gradients'
p2408
I0
sg163
Nsg326
I-1
sg173
I0
sS'number_of_contours'
p2409
I1
sS'array_component'
p2410
I0
sS'use_scalar_tree_'
p2411
I0
sS'compute_scalars_'
p2412
I1
sS'compute_gradients_'
p2413
I0
sg156
I0
sg157
I0
sS'use_scalar_tree'
p2414
I0
sg158
F0
sg325
I0
sg179
I0
sg170
I0
sg1724
I2
sS'generate_triangles'
p2415
I1
sS'generate_triangles_'
p2416
I1
sg171
I0
sS'compute_scalars'
p2417
I1
sg165
I0
ssg20
g44
sg22
I337
sssS'_traits_cache_minimum_contour'
p2418
F0
sS'contours'
p2419
(dp2420
g19
(lp2421
sg20
g866
sg22
I338
ssS'_fill_cont_filt'
p2422
(dp2423
g2
(lp2424
((S'CHasTraits'
S'traits.ctraits'
tI-1
tp2425
a((g5
g6
tI-1
tp2426
a((g8
g6
tI-1
tp2427
a((g116
g117
tI-1
tp2428
a((g119
g120
tI-1
tp2429
a((g122
g123
tI-1
tp2430
a((g125
g126
tI-1
tp2431
a((g313
g314
tI-1
tp2432
a((S'BandedPolyDataContourFilter'
p2433
S'tvtk.tvtk_classes.banded_poly_data_contour_filter'
p2434
tI-1
tp2435
asg16
g2433
sg17
(dp2436
g19
Nsg20
g36
sg22
I13
ssg20
g23
sg22
I339
sg24
g2434
sg19
(dp2437
g19
(dp2438
g173
I0
sS'clipping'
p2439
I1
sg171
I0
sg170
I0
sS'clipping_'
p2440
I1
sg146
g42
sS'generate_contour_edges'
p2441
I0
sg163
Nsg165
I0
sS'clip_tolerance'
p2442
F1.1920928955078125e-07
sg156
I0
sg1722
I1
sg157
I0
sg179
I0
sg158
F0
sg2409
I1
sS'generate_contour_edges_'
p2443
I0
ssg20
g44
sg22
I340
sssg2307
NsS'show_filled_contours'
p2444
I01
sS'auto_update_range'
p2445
I01
sg1749
Nsg2409
I10
sg2352
S''
sS'_traits_cache_maximum_contour'
p2446
F0
ssg20
g44
sg22
I334
sssg874
S'module.ico'
p2447
ssg20
g44
sg22
I326
ssasg20
g866
sg22
I324
ssg874
S'modulemanager.ico'
p2448
ssg20
g44
sg22
I290
ssasg20
g866
sg22
I288
ssS'parametric_function'
p2449
(dp2450
g19
Nsg20
g36
sg22
I268
sssg20
g44
sg22
I256
ssasg20
g866
sg22
I254
ssg874
S'scene.ico'
p2451
ssg20
g44
sg22
I134
ssasg20
g866
sg22
I5
ssS'running'
p2452
I01
sS'scene_factory'
p2453
(dp2454
g2
(lp2455
sg16
S'function'
p2456
sg17
(dp2457
g19
Nsg20
g36
sg22
I1
ssg20
g23
sg22
I400
sg24
S'__builtin__'
p2458
sg19
(dp2459
g19
(dp2460
sg20
g44
sg22
I401
sssg1910
NsS'_current_selection_'
p2461
(dp2462
g2
(lp2463
((g32
g33
tI-1
tp2464
asg16
g32
sg17
(dp2465
g19
Nsg20
g36
sg22
I1
ssg20
g23
sg22
I402
sg24
g33
sg19
(dp2466
g19
(dp2467
g39
(dp2468
g19
Nsg20
g36
sg22
I0
ssg27
S'_current_selection'
p2469
sg42
(dp2470
g19
Nsg20
g36
sg22
I133
sssg20
g44
sg22
I403
ssssg20
g44
sg22
I2
ss.